emd: 1

Library: ScePafWidget attr: auto_export
Library: ScePafWidget version: 1
Library: ScePafWidget stubfile: "libScePafWidget_stub"
Library: ScePafWidget nidsuffix: "PAF"
Library: ScePafWidget libnamenid: 0x073F8C68

Library: ScePafWidget function: _ZN3paf2ui5wutil9InitParamC1Ev
Library: ScePafWidget function: _ZN3paf2ui5wutil9InitParamC2Ev

Library: ScePafWidget function: _ZN3paf2ui5wutil5debug4TermERNS1_9InitParamE
Library: ScePafWidget function: _ZN3paf2ui5wutil5debug7DevTermEv
Library: ScePafWidget function: _ZN3paf2ui5wutil5debug11vec4_printfEPcRKNS_4math2v4E
Library: ScePafWidget function: _ZN3paf2ui5wutil5debug14LoadGimTextureERKNS_12basic_stringIcNS_11char_traitsIcEENS_9allocatorIcEEEERNS_13intrusive_ptrINS_5graph7SurfaceEEE
Library: ScePafWidget function: _ZN3paf2ui5wutil5debug14LoadPngTextureERKNS_12basic_stringIcNS_11char_traitsIcEENS_9allocatorIcEEEERNS_13intrusive_ptrINS_5graph7SurfaceEEE

Library: ScePafWidget function: _ZN3paf2ui5wutil4InitERKNS1_9InitParamE
Library: ScePafWidget function: _ZN3paf2ui5wutil7DevTermEv
Library: ScePafWidget function: _ZN3paf2ui5wutil4TermEv
Library: ScePafWidget function: _ZN3paf2ui5wutil6SetEnvEPNS0_11EnvironmentE
Library: ScePafWidget function: _ZN3paf2ui5wutil20PostTouchScreenEventEPNS0_11EnvironmentEiiiiii
Library: ScePafWidget function: _ZN3paf2ui5wutil16PostKeycodeEventEPNS0_11EnvironmentEiiiiiii
Library: ScePafWidget function: _ZN3paf2ui5wutil14PostStateEventEPNS0_11EnvironmentEiPNS0_7HandlerE
Library: ScePafWidget function: _ZN3paf2ui5wutil15GetEditListenerEv
Library: ScePafWidget function: _ZN3paf2ui5wutil18GetWebEditListenerEv
Library: ScePafWidget function: _ZN3paf2ui5wutil24GetMessageDialogListenerEv
Library: ScePafWidget function: _ZN3paf2ui5wutil18GetWebViewListenerEv

Library: ScePafWidget function: _ZN3paf2ui11Environment9EventLoopEv
Library: ScePafWidget function: _ZN3paf2ui11Environment14ShowSceneEntryEi
Library: ScePafWidget function: _ZN3paf2ui11Environment14HideSceneEntryEi
Library: ScePafWidget function: _ZN3paf2ui11Environment11GetSceneNumEi
Library: ScePafWidget function: _ZN3paf2ui11Environment11GetSceneTopEiRNS_14_list_iteratorIPNS0_6WidgetENS_9allocatorIS4_EEEE
Library: ScePafWidget function: _ZN3paf2ui11Environment11GetSceneEndEiRNS_14_list_iteratorIPNS0_6WidgetENS_9allocatorIS4_EEEE
Library: ScePafWidget function: _ZN3paf2ui11Environment9ShowFocusEi
Library: ScePafWidget function: _ZN3paf2ui11Environment9HideFocusEi
Library: ScePafWidget function: _ZN3paf2ui11Environment25RegisterTouchDeviceRegionEjPNS0_6WidgetE
Library: ScePafWidget function: _ZN3paf2ui11Environment25RegisterTouchDeviceRegionEPNS0_6WidgetE
Library: ScePafWidget function: _ZN3paf2ui11Environment23RemoveTouchDeviceRegionEPNS0_6WidgetE
Library: ScePafWidget function: _ZN3paf2ui11Environment19RegisterModalWidgetEPNS0_6WidgetEj
Library: ScePafWidget function: _ZN3paf2ui11Environment9SetScreenEPNS0_6ScreenE
Library: ScePafWidget function: _ZN3paf2ui11Environment4InitEv
Library: ScePafWidget function: _ZN3paf2ui11EnvironmentD1Ev
Library: ScePafWidget function: _ZN3paf2ui11EnvironmentD0Ev
Library: ScePafWidget function: _ZN3paf2ui11EnvironmentD2Ev
Library: ScePafWidget function: _ZN3paf2ui11Environment19UpdateRestructSceneEv
Library: ScePafWidget function: _ZN3paf2ui11Environment6OnDrawEv
Library: ScePafWidget function: _ZN3paf2ui11Environment25OnUpdateTouchDeviceRegionEv
Library: ScePafWidget function: _ZN3paf2ui11Environment12OnUpdatePostEv
Library: ScePafWidget function: _ZN3paf2ui11Environment11OnUpdatePreEv
Library: ScePafWidget function: _ZN3paf2ui11Environment15IsTermAvailableEv
Library: ScePafWidget function: _ZN3paf2ui11Environment11RequestTermEv
Library: ScePafWidget function: _ZN3paf2ui11Environment4TermEv
Library: ScePafWidget function: _ZN3paf2ui11Environment11GetHitStackEPNS0_7HitInfoEPNS0_6WidgetE
Library: ScePafWidget function: _ZN3paf2ui11Environment16IsHitStackParentEPNS0_6WidgetE
Library: ScePafWidget function: _ZN3paf2ui11Environment12ClearHitInfoEPNS0_6WidgetE
Library: ScePafWidget function: _ZN3paf2ui11Environment15GetLastHitStackEPNS0_7HitInfoE
Library: ScePafWidget function: _ZN3paf2ui11Environment13SetResolutionEtt nidvalue: 0xE8F38C84
Library: ScePafWidget function: _ZN3paf2ui11EnvironmentC1EPNS0_16EnvironmentParamEj nidvalue: 0x393F0EF0
Library: ScePafWidget function: _ZN3paf2ui11EnvironmentC2EPNS0_16EnvironmentParamEj nidvalue: 0x038B47A4

Library: ScePafWidget function: _ZN3paf2ui25MultiTouchGestureListener18RefreshActiveTouchEj
Library: ScePafWidget function: _ZN3paf2ui18PadGestureListener14on_update_coreEv
Library: ScePafWidget function: _ZN3paf2ui18PadGestureListener16PostGestureEventEjjii
Library: ScePafWidget function: _ZN3paf2ui14PadTapListener11OnPadUpdateEPKNS_11inputdevice3pad4DataES6_
Library: ScePafWidget function: _ZN3paf2ui20PadLongPressListener11OnPadUpdateEPKNS_11inputdevice3pad4DataES6_

Library: ScePafWidget function: _ZN3paf2ui5EventC1Ev
Library: ScePafWidget function: _ZN3paf2ui5EventC2Ev
Library: ScePafWidget function: _ZN3paf2ui5EventC1EjPNS0_7HandlerEjjiiii
Library: ScePafWidget function: _ZN3paf2ui5EventC2EjPNS0_7HandlerEjjiiii
Library: ScePafWidget function: _ZN3paf2ui5EventC1Ejjjjiiii
Library: ScePafWidget function: _ZN3paf2ui5EventC2Ejjjjiiii
Library: ScePafWidget function: _ZNK3paf2ui5Event4CompERKS1_jj

Library: ScePafWidget function: _ZN3paf2ui17EventListenerList6DelAllEv
Library: ScePafWidget function: _ZN3paf2ui17EventListenerList10UpdateKillEv
Library: ScePafWidget function: _ZN3paf2ui17EventListenerList2DoEiPNS0_7HandlerEPNS0_5EventE
Library: ScePafWidget function: _ZN3paf2ui17EventListenerList4FindEPNS0_13EventListenerE
Library: ScePafWidget function: _ZN3paf2ui17EventListenerList3AddEPNS0_13EventListenerE
Library: ScePafWidget function: _ZN3paf2ui17EventListenerList8AddFrontEPNS0_13EventListenerE
Library: ScePafWidget function: _ZN3paf2ui17EventListenerList3DelEPNS0_13EventListenerE
Library: ScePafWidget function: _ZN3paf2ui17EventListenerList4FindEPFviPNS0_7HandlerEPNS0_5EventEPvE

Library: ScePafWidget function: _ZN3paf2ui10EventQueueC1Ei
Library: ScePafWidget function: _ZN3paf2ui10EventQueueC2Ei
Library: ScePafWidget function: _ZN3paf2ui10EventQueue3AddERKNS0_5EventEi
Library: ScePafWidget function: _ZN3paf2ui10EventQueue3GetERNS0_5EventEi
Library: ScePafWidget function: _ZN3paf2ui10EventQueue8PushBackERKNS0_5EventE
Library: ScePafWidget function: _ZN3paf2ui10EventQueue9PushFrontERKNS0_5EventE
Library: ScePafWidget function: _ZN3paf2ui10EventQueue8PopFrontERNS0_5EventE
Library: ScePafWidget function: _ZN3paf2ui10EventQueue6RemoveEi
Library: ScePafWidget function: _ZN3paf2ui10EventQueue6CancelERKNS0_5EventEj
Library: ScePafWidget function: _ZN3paf2ui10EventQueue5ClearEv

Library: ScePafWidget function: _ZN3paf2ui7HandlerD0Ev
Library: ScePafWidget function: _ZN3paf2ui7HandlerD2Ev
Library: ScePafWidget function: _ZN3paf2ui7HandlerD1Ev
Library: ScePafWidget function: _ZN3paf2ui7HandlerC1Ej
Library: ScePafWidget function: _ZN3paf2ui7HandlerC2Ej
Library: ScePafWidget function: _ZN3paf2ui7Handler11HandlerProcEPNS0_5EventE
Library: ScePafWidget function: _ZN3paf2ui7Handler21HandlePointEvent_coreEPNS0_5EventEb
Library: ScePafWidget function: _ZN3paf2ui7Handler18HandlePointFwEventEPNS0_5EventE
Library: ScePafWidget function: _ZN3paf2ui7Handler21HandleTouchEvent_coreEPNS0_5EventEb
Library: ScePafWidget function: _ZN3paf2ui7Handler18HandleTouchFwEventEPNS0_5EventE
Library: ScePafWidget function: _ZN3paf2ui7Handler18HandleKeycodeEventEPNS0_5EventE
Library: ScePafWidget function: _ZN3paf2ui7Handler17HandleAnalogEventEPNS0_5EventE
Library: ScePafWidget function: _ZN3paf2ui7Handler16HandlePointEventEPNS0_5EventE
Library: ScePafWidget function: _ZN3paf2ui7Handler16HandleTouchEventEPNS0_5EventE
Library: ScePafWidget function: _ZN3paf2ui7Handler18HandleGestureEventEPNS0_5EventE
Library: ScePafWidget function: _ZN3paf2ui7Handler16HandleFocusEventEPNS0_5EventE
Library: ScePafWidget function: _ZN3paf2ui7Handler22HandleFocusSwitchEventEPNS0_5EventE
Library: ScePafWidget function: _ZN3paf2ui7Handler16HandleStateEventEPNS0_5EventE
Library: ScePafWidget function: _ZN3paf2ui7Handler18HandleCommandEventEPNS0_5EventE
Library: ScePafWidget function: _ZN3paf2ui7Handler17HandleSystemEventEPNS0_5EventE
Library: ScePafWidget function: _ZN3paf2ui7Handler16HandleTimerEventEPNS0_5EventE
Library: ScePafWidget function: _ZN3paf2ui7Handler16AddEventListenerEiPNS0_13EventListenerEb
Library: ScePafWidget function: _ZN3paf2ui7Handler19DeleteEventListenerEiPNS0_13EventListenerE
Library: ScePafWidget function: _ZN3paf2ui7Handler19DeleteEventCallbackEiPFviPS1_PNS0_5EventEPvES5_
Library: ScePafWidget function: _ZN3paf2ui7Handler7DoEventEiPNS0_5EventE
Library: ScePafWidget function: _ZN3paf2ui7Handler11UpdateTimerEv
Library: ScePafWidget function: _ZN3paf2ui7Handler16SetTimerListenerEifPNS0_13EventListenerE
Library: ScePafWidget function: _ZN3paf2ui7Handler9KillTimerEi
Library: ScePafWidget function: _ZN3paf2ui7Handler21delete_timer_listenerENS_13_map_iteratorIiPNS0_15TimeoutListenerENS_4lessIiEENS_9allocatorIS4_EEEEb

Library: ScePafWidget function: _ZN3paf2ui9FocusInfo4HideEv
Library: ScePafWidget function: _ZN3paf2ui9FocusInfo15AddFocusHistoryEPNS0_6WidgetES3_j
Library: ScePafWidget function: _ZN3paf2ui9FocusInfo18RemoveFocusHistoryEPNS0_6WidgetE
Library: ScePafWidget function: _ZN3paf2ui9FocusInfo16FindFocusHistoryEPNS0_6WidgetEj

Library: ScePafWidget function: _ZN3paf2ui12AnimListener10PropRotSetEPS1_NS_4math2v4E
Library: ScePafWidget function: _ZN3paf2ui12AnimListener10PropRotGetEPS1_
Library: ScePafWidget function: _ZN3paf2ui12AnimListener11PropQuatSetEPS1_NS_4math2v4E
Library: ScePafWidget function: _ZN3paf2ui12AnimListener11PropQuatGetEPS1_
Library: ScePafWidget function: _ZN3paf2ui12AnimListener11PropSizeSetEPS1_NS_4math2v4E
Library: ScePafWidget function: _ZN3paf2ui12AnimListener11PropSizeGetEPS1_
Library: ScePafWidget function: _ZN3paf2ui12AnimListener12PropScaleSetEPS1_NS_4math2v4E
Library: ScePafWidget function: _ZN3paf2ui12AnimListener12PropScaleGetEPS1_
Library: ScePafWidget function: _ZN3paf2ui12AnimListener12PropAlignSetEPS1_NS_4math2v4E
Library: ScePafWidget function: _ZN3paf2ui12AnimListener12PropAlignGetEPS1_
Library: ScePafWidget function: _ZN3paf2ui12AnimListener13PropOriginSetEPS1_NS_4math2v4E
Library: ScePafWidget function: _ZN3paf2ui12AnimListener13PropOriginGetEPS1_
Library: ScePafWidget function: _ZN3paf2ui12AnimListener13PropAnchorSetEPS1_NS_4math2v4E
Library: ScePafWidget function: _ZN3paf2ui12AnimListener13PropAnchorGetEPS1_
Library: ScePafWidget function: _ZN3paf2ui12AnimListener16PropMetaAlphaSetEPS1_f
Library: ScePafWidget function: _ZN3paf2ui12AnimListener16PropMetaAlphaGetEPS1_
Library: ScePafWidget function: _ZN3paf2ui12AnimListener16PropShowAlphaSetEPS1_f
Library: ScePafWidget function: _ZN3paf2ui12AnimListener16PropShowAlphaGetEPS1_
Library: ScePafWidget function: _ZN3paf2ui12AnimListenerC1EPNS_5TimerEPNS0_6WidgetEPFvS3_PS1_PvS7_S7_ES9_S7_
Library: ScePafWidget function: _ZN3paf2ui12AnimListenerC2EPNS_5TimerEPNS0_6WidgetEPFvS3_PS1_PvS7_S7_ES9_S7_
Library: ScePafWidget function: _ZN3paf2ui12AnimListener10PropPosSetEPS1_NS_4math2v4E
Library: ScePafWidget function: _ZN3paf2ui12AnimListener10PropPosGetEPS1_
Library: ScePafWidget function: _ZN3paf2ui12AnimListener12PropColorSetEPS1_NS_4math2v4E
Library: ScePafWidget function: _ZN3paf2ui12AnimListener12PropColorGetEPS1_

Library: ScePafWidget function: _ZN3paf2ui14AnimListenerV46OnTickEPvS2_

Library: ScePafWidget function: _ZN3paf2ui14AnimListenerF16OnTickEPvS2_

Library: ScePafWidget function: _ZN3paf2ui8Layouter6FinishEv
Library: ScePafWidget function: _ZN3paf2ui8Layouter5EnterEv
Library: ScePafWidget function: _ZN3paf2ui8Layouter8OnUpdateEv
Library: ScePafWidget function: _ZN3paf2ui8Layouter13OnUpdate_coreEv
Library: ScePafWidget function: _ZN3paf2ui8Layouter7IsEnterEv

Library: ScePafWidget function: _ZN3paf2ui8Animator8OnUpdateEv
Library: ScePafWidget function: _ZN3paf2ui8Animator13OnUpdate_coreEv
Library: ScePafWidget function: _ZN3paf2ui8Animator5EnterEv
Library: ScePafWidget function: _ZN3paf2ui8Animator6FinishEv
Library: ScePafWidget function: _ZN3paf2ui8Animator7IsEnterEv

Library: ScePafWidget function: _ZN3paf2ui15AnimListenerObj13PropObjPosSetEPNS0_12AnimListenerENS_4math2v4E
Library: ScePafWidget function: _ZN3paf2ui15AnimListenerObj13PropObjPosGetEPNS0_12AnimListenerE
Library: ScePafWidget function: _ZN3paf2ui15AnimListenerObj15PropObjColorSetEPNS0_12AnimListenerENS_4math2v4E
Library: ScePafWidget function: _ZN3paf2ui15AnimListenerObj15PropObjColorGetEPNS0_12AnimListenerE
Library: ScePafWidget function: _ZN3paf2ui15AnimListenerObj14PropObjSizeSetEPNS0_12AnimListenerENS_4math2v4E
Library: ScePafWidget function: _ZN3paf2ui15AnimListenerObj14PropObjSizeGetEPNS0_12AnimListenerE
Library: ScePafWidget function: _ZN3paf2ui15AnimListenerObj13PropObjRotSetEPNS0_12AnimListenerENS_4math2v4E
Library: ScePafWidget function: _ZN3paf2ui15AnimListenerObj13PropObjRotGetEPNS0_12AnimListenerE

Library: ScePafWidget function: _ZN3paf2ui18TexAnimListenerObjC1EPNS_5TimerEPNS0_6WidgetEPNS_5graph7DrawObjEiiiiPFvS3_PNS0_12AnimListenerEPvSB_SB_ESB_
Library: ScePafWidget function: _ZN3paf2ui18TexAnimListenerObjC2EPNS_5TimerEPNS0_6WidgetEPNS_5graph7DrawObjEiiiiPFvS3_PNS0_12AnimListenerEPvSB_SB_ESB_
Library: ScePafWidget function: _ZN3paf2ui18TexAnimListenerObj7TexAnimEf

Library: ScePafWidget function: _ZN3paf2ui13AnimQueueBase9EraseTypeEib
Library: ScePafWidget function: _ZN3paf2ui13AnimQueueBase19SetFinishedLoopBackEb

Library: ScePafWidget function: _ZN3paf2ui9AnimQueue8PushBackEPNS_13TimerListenerEj
Library: ScePafWidget function: _ZN3paf2ui9AnimQueue9PushFrontEPNS_13TimerListenerEj
Library: ScePafWidget function: _ZN3paf2ui9AnimQueue10EraseFrontEbj
Library: ScePafWidget function: _ZN3paf2ui9AnimQueue6DoTickEPvS2_
Library: ScePafWidget function: _ZN3paf2ui9AnimQueue9EraseTypeEib

Library: ScePafWidget function: _ZN3paf2ui6Screen10SetSurfaceENS_13intrusive_ptrINS_5graph7SurfaceEEE
Library: ScePafWidget function: _ZN3paf2ui6ScreenC1Ev
Library: ScePafWidget function: _ZN3paf2ui6ScreenC2Ev
Library: ScePafWidget function: _ZN3paf2ui6ScreenC1ENS_13intrusive_ptrINS_5graph7SurfaceEEE
Library: ScePafWidget function: _ZN3paf2ui6ScreenC2ENS_13intrusive_ptrINS_5graph7SurfaceEEE
Library: ScePafWidget function: _ZN3paf2ui6ScreenD1Ev
Library: ScePafWidget function: _ZN3paf2ui6ScreenD2Ev
Library: ScePafWidget function: _ZN3paf2ui6ScreenD0Ev
Library: ScePafWidget function: _ZN3paf2ui6Screen10PushTargetEPS1_
Library: ScePafWidget function: _ZN3paf2ui6Screen8OnTargetEv
Library: ScePafWidget function: _ZN3paf2ui6Screen7OnClearEv
Library: ScePafWidget function: _ZN3paf2ui6Screen9PopTargetEPS1_
Library: ScePafWidget function: _ZN3paf2ui6Screen8OnFinishEv
Library: ScePafWidget function: _ZN3paf2ui6Screen4SwapEv
Library: ScePafWidget function: _ZN3paf2ui6Screen4TermEv
Library: ScePafWidget function: _ZN3paf2ui6Screen13SetRootScreenEPS1_

Library: ScePafWidget function: _ZN3paf2ui13UIPadListener8OnUpdateEPKNS_11inputdevice4DataE
Library: ScePafWidget function: _ZN3paf2ui15UITouchListener4InitEv
Library: ScePafWidget function: _ZN3paf2ui15UITouchListener8OnUpdateEPKNS_11inputdevice4DataE
Library: ScePafWidget function: _ZN3paf2ui16UIMotionListener8OnUpdateEPKNS_11inputdevice4DataE
Library: ScePafWidget function: _ZN3paf2ui16UIAnalogListener8OnUpdateEPKNS_11inputdevice4DataE

Library: ScePafWidget function: _ZN3paf2ui16EnvironmentParamC1Ej nidvalue: 0xFE22E2B3
Library: ScePafWidget function: _ZN3paf2ui16EnvironmentParamC2Ej nidvalue: 0x22303A4C
Library: ScePafWidget function: _ZN3paf2ui16EnvironmentParamD1Ev nidvalue: 0xFA21D400
Library: ScePafWidget function: _ZN3paf2ui16EnvironmentParamD2Ev nidvalue: 0x7E3CFE67
Library: ScePafWidget function: _ZN3paf2ui16EnvironmentParamD0Ev nidvalue: 0xC230312B

Library: ScePafWidget function: _ZN3paf2ui6Widget13SetColor_coreERKNS_4math2v4E
Library: ScePafWidget function: _ZN3paf2ui6Widget19UpdateAfterChildrenEv
Library: ScePafWidget function: _ZN3paf2ui6Widget9CalcBoundERKNS_4math2v4ERKNS2_10quaternionE
Library: ScePafWidget function: _ZN3paf2ui6Widget12GetSizeBoundEiPS1_
Library: ScePafWidget function: _ZN3paf2ui6Widget16CalcHitBoxToLineERKNS_4math2v4ES5_S5_PNS0_7HitInfoE
Library: ScePafWidget function: _ZN3paf2ui6Widget20CalcDistPointToPlaneERKNS_4math2v4ES5_S5_i
Library: ScePafWidget function: _ZN3paf2ui6Widget19CalcDistPointToLineERKNS_4math2v4ES5_S5_PNS0_7HitInfoE
Library: ScePafWidget function: _ZN3paf2ui6Widget14HitDetect_coreEjPNS0_5EventEjRKNS_4math2v4ES7_PNS0_7HitInfoE
Library: ScePafWidget function: _ZN3paf2ui6Widget16HitDetectRoutingEPNS0_5EventERKNS_4math2v4ES7_PNS0_9TouchInfoEPNS0_7HitInfoE
Library: ScePafWidget function: _ZN3paf2ui6Widget27apply_pad_gesture_longpressEjj
Library: ScePafWidget function: _ZN3paf2ui6Widget21apply_pad_gesture_tapEjj
Library: ScePafWidget function: _ZN3paf2ui6Widget22apply_pad_gesture_maskEjj
Library: ScePafWidget function: _ZN3paf2ui6Widget15ApplyPadGestureEjjPKNS_11inputdevice12GestureParamE
Library: ScePafWidget function: _ZN3paf2ui6Widget24apply_touch_gesture_maskEjjj
Library: ScePafWidget function: _ZN3paf2ui6Widget17ApplyTouchGestureEjjjPKNS_11inputdevice12GestureParamE
Library: ScePafWidget function: _ZN3paf2ui6Widget23remove_pad_gesture_maskEjj
Library: ScePafWidget function: _ZN3paf2ui6Widget25remove_touch_gesture_maskEjjj
Library: ScePafWidget function: _ZN3paf2ui6Widget18CalcDistLineToLineERKNS_4math2v4ES5_S5_S5_PS3_S6_
Library: ScePafWidget function: _ZN3paf2ui6Widget10UpdateSizeEv
Library: ScePafWidget function: _ZN3paf2ui6Widget6OnDrawERNS_5graph8DrawInfoE
Library: ScePafWidget function: _ZN3paf2ui6Widget19SetAlignOffset_coreERKNS_4math2v4Ej
Library: ScePafWidget function: _ZN3paf2ui6Widget8SetAlignEjjjPNS_5TimerE
Library: ScePafWidget function: _ZN3paf2ui6Widget14SetAlignOffsetERKNS_4math2v4EPNS_5TimerEiifPFvS7_PNS0_12AnimListenerEPvSA_SA_ESA_
Library: ScePafWidget function: _ZN3paf2ui6Widget17calc_align_offsetERKNS_4math2v4ES5_jjj
Library: ScePafWidget function: _ZN3paf2ui6Widget15GetOriginOffsetEi
Library: ScePafWidget function: _ZN3paf2ui6Widget20SetOriginOffset_coreERKNS_4math2v4Ej
Library: ScePafWidget function: _ZN3paf2ui6Widget9SetOriginEjjjPNS_5TimerE
Library: ScePafWidget function: _ZN3paf2ui6Widget15SetOriginOffsetERKNS_4math2v4EPNS_5TimerEiifPFvS7_PNS0_12AnimListenerEPvSA_SA_ESA_
Library: ScePafWidget function: _ZN3paf2ui6Widget18calc_origin_offsetERKNS_4math2v4ES5_jjj
Library: ScePafWidget function: _ZN3paf2ui6Widget15GetAnchorOffsetEi
Library: ScePafWidget function: _ZN3paf2ui6Widget20SetAnchorOffset_coreERKNS_4math2v4Ej
Library: ScePafWidget function: _ZN3paf2ui6Widget9SetAnchorEjjjPNS_5TimerE
Library: ScePafWidget function: _ZN3paf2ui6Widget15SetAnchorOffsetERKNS_4math2v4EPNS_5TimerEiifPFvS7_PNS0_12AnimListenerEPvSA_SA_ESA_
Library: ScePafWidget function: _ZN3paf2ui6Widget18calc_anchor_offsetERKNS_4math2v4ES5_jjj
Library: ScePafWidget function: _ZN3paf2ui6Widget21UpdateAdjustChildSizeEPS1_
Library: ScePafWidget function: _ZN3paf2ui6Widget17CalcHitBoxToPlaneERKNS_4math2v4ES5_S5_PfPNS0_7HitInfoE
Library: ScePafWidget function: _ZN3paf2ui6Widget10GetDrawObjEi
Library: ScePafWidget function: _ZN3paf2ui6Widget12ReleaseFocusEv
Library: ScePafWidget function: _ZN3paf2ui6Widget17EventExecDispatchEPNS0_5EventE
Library: ScePafWidget function: _ZN3paf2ui6Widget16GrabEventRoutingEPNS0_5EventERKNS_4math2v4ES7_PNS0_9TouchInfoEPNS0_7HitInfoE
Library: ScePafWidget function: _ZN3paf2ui6Widget18EventExecBroadcastEPNS0_5EventE
Library: ScePafWidget function: _ZN3paf2ui6Widget15EventExecDirectEPNS0_5EventE
Library: ScePafWidget function: _ZN3paf2ui6Widget11EventExecDoEPNS0_5EventE
Library: ScePafWidget function: _ZN3paf2ui6Widget7DoEventEiPNS0_5EventE
Library: ScePafWidget function: _ZN3paf2ui6Widget12SetPosCenterERKNS_4math2v4E
Library: ScePafWidget function: _ZN3paf2ui6Widget13SetScale_coreERKNS_4math2v4Ej
Library: ScePafWidget function: _ZN3paf2ui6Widget8SetScaleERKNS_4math2v4EPNS_5TimerEiifPFvS7_PNS0_12AnimListenerEPvSA_SA_ESA_
Library: ScePafWidget function: _ZN3paf2ui6Widget8GetScaleEi
Library: ScePafWidget function: _ZN3paf2ui6Widget22SetResolutionSize_coreEPKNS0_14ResolutionDataEi
Library: ScePafWidget function: _ZN3paf2ui6Widget7SetSizeEPKNS0_14ResolutionDataEjPNS_5TimerEiifPFvS6_PNS0_12AnimListenerEPvS9_S9_ES9_
Library: ScePafWidget function: _ZN3paf2ui6Widget12CalcClipRectEv
Library: ScePafWidget function: _ZN3paf2ui6Widget6GetRotEiPS1_RKNS_4math2v4Ei
Library: ScePafWidget function: _ZN3paf2ui6Widget6SetRotERKNS_4math2v4EiPNS_5TimerEiifPFvS7_PNS0_12AnimListenerEPvSA_SA_ESA_
Library: ScePafWidget function: _ZN3paf2ui6Widget21SetResolutionRot_coreEPKNS0_14ResolutionDataEi
Library: ScePafWidget function: _ZN3paf2ui6Widget6SetRotEPKNS0_14ResolutionDataEjiPNS_5TimerEiifPFvS6_PNS0_12AnimListenerEPvS9_S9_ES9_
Library: ScePafWidget function: _ZN3paf2ui6Widget12SetQuat_coreERKNS_4math10quaternionEj
Library: ScePafWidget function: _ZN3paf2ui6Widget7SetQuatERKNS_4math10quaternionEPNS_5TimerEiifPFvS7_PNS0_12AnimListenerEPvSA_SA_ESA_
Library: ScePafWidget function: _ZN3paf2ui6Widget7GetQuatEiPS1_RKNS_4math10quaternionE
Library: ScePafWidget function: _ZN3paf2ui6Widget6LookAtERKNS_4math2v4ES5_
Library: ScePafWidget function: _ZN3paf2ui6Widget6LookAtEPS1_RKNS_4math2v4ES2_S6_
Library: ScePafWidget function: _ZN3paf2ui6Widget10SetPostureERKNS_4math2v4ES5_PS1_
Library: ScePafWidget function: _ZN3paf2ui6Widget9SetAdjustEjjj
Library: ScePafWidget function: _ZN3paf2ui6Widget6UpdateEv
Library: ScePafWidget function: _ZN3paf2ui6Widget21UpdateResolutionTimerEv
Library: ScePafWidget function: _ZN3paf2ui6Widget8OnUpdateEv
Library: ScePafWidget function: _ZN3paf2ui6Widget12OnUpdatePostEv
Library: ScePafWidget function: _ZN3paf2ui6Widget13UpdateDestroyEv
Library: ScePafWidget function: _ZN3paf2ui6Widget14UpdateRestructEv
Library: ScePafWidget function: _ZN3paf2ui6Widget13GetHitBoxSizeEi
Library: ScePafWidget function: _ZN3paf2ui6Widget15GetHitBoxCenterEv
Library: ScePafWidget function: _ZN3paf2ui6Widget11CalcHitRectEv
Library: ScePafWidget function: _ZN3paf2ui6Widget9SetParentEPS1_S2_i
Library: ScePafWidget function: _ZN3paf2ui6Widget13SetScene_coreEPNS0_5SceneE
Library: ScePafWidget function: _ZN3paf2ui6Widget9FindChildERKNS_7IDParamEi
Library: ScePafWidget function: _ZN3paf2ui6Widget9FindChildEPS1_i
Library: ScePafWidget function: _ZNK3paf2ui6Widget8GetChildEi
Library: ScePafWidget function: _ZN3paf2ui6Widget24CountFocusEnableChildrenEi
Library: ScePafWidget function: _ZN3paf2ui6Widget11RemoveChildEPS1_
Library: ScePafWidget function: _ZN3paf2ui6Widget13RegisterChildEPS1_S2_
Library: ScePafWidget function: _ZN3paf2ui6Widget12ReorderChildEPS1_S2_
Library: ScePafWidget function: _ZN3paf2ui6Widget14SetBehind_coreEPS1_
Library: ScePafWidget function: _ZN3paf2ui6Widget15SetForward_coreEPS1_
Library: ScePafWidget function: _ZN3paf2ui6Widget21SetBehindOneStep_coreEv
Library: ScePafWidget function: _ZN3paf2ui6Widget22SetForwardOneStep_coreEv
Library: ScePafWidget function: _ZN3paf2ui6Widget18SetBehindMost_coreEv
Library: ScePafWidget function: _ZN3paf2ui6Widget19SetForwardMost_coreEv
Library: ScePafWidget function: _ZN3paf2ui6Widget9SetBehindEPS1_
Library: ScePafWidget function: _ZN3paf2ui6Widget10SetForwardEPS1_
Library: ScePafWidget function: _ZN3paf2ui6Widget8KillAnimEi
Library: ScePafWidget function: _ZN3paf2ui6Widget10SetObjAnimEiiRKNS_4math2v4EPNS_5TimerEi
Library: ScePafWidget function: _ZN3paf2ui6Widget11KillObjAnimEii
Library: ScePafWidget function: _ZN3paf2ui6Widget10SetTexAnimEiiiiiPNS_5TimerEifPFvS3_PNS0_12AnimListenerEPvS6_S6_ES6_
Library: ScePafWidget function: _ZN3paf2ui6Widget8SetColorERKNS_4math2v4EPNS_5TimerEiifPFvS7_PNS0_12AnimListenerEPvSA_SA_ESA_
Library: ScePafWidget function: _ZN3paf2ui6Widget6SetPosERKNS_4math2v4EPNS_5TimerEiifPFvS7_PNS0_12AnimListenerEPvSA_SA_ESA_
Library: ScePafWidget function: _ZN3paf2ui6Widget21SetResolutionPos_coreEPKNS0_14ResolutionDataEi
Library: ScePafWidget function: _ZN3paf2ui6Widget6SetPosEPKNS0_14ResolutionDataEjPNS_5TimerEiifPFvS6_PNS0_12AnimListenerEPvS9_S9_ES9_
Library: ScePafWidget function: _ZN3paf2ui6Widget12GetPosCenterEiPS1_RKNS_4math2v4E
Library: ScePafWidget function: _ZN3paf2ui6Widget7SetSizeERKNS_4math2v4EPNS_5TimerEiifPFvS7_PNS0_12AnimListenerEPvSA_SA_ESA_
Library: ScePafWidget function: _ZN3paf2ui6Widget14SetUpdateParamEj
Library: ScePafWidget function: _ZN3paf2ui6Widget11SetRot_coreERKNS_4math2v4Eij
Library: ScePafWidget function: _ZN3paf2ui6Widget18CalcHitLineToPlaneERKNS_4math2v4ES5_S5_S5_PNS0_7HitInfoE
Library: ScePafWidget function: _ZN3paf2ui6Widget18detach_environmentEv
Library: ScePafWidget function: _ZN3paf2ui6Widget14SetEnvironmentEPNS0_11EnvironmentE
Library: ScePafWidget function: _ZN3paf2ui6Widget14SetParent_coreEPS1_S2_
Library: ScePafWidget function: _ZN3paf2ui6Widget15InitCreateParamEPKNS1_11CreateParamE
Library: ScePafWidget function: _ZN3paf2ui6Widget12SetPinchModeEj
Library: ScePafWidget function: _ZN3paf2ui6Widget11SetDragModeEj
Library: ScePafWidget function: _ZN3paf2ui6WidgetC1EPS1_PNS1_11CreateParamE
Library: ScePafWidget function: _ZN3paf2ui6WidgetC2EPS1_PNS1_11CreateParamE
Library: ScePafWidget function: _ZN3paf2ui6WidgetD1Ev
Library: ScePafWidget function: _ZN3paf2ui6WidgetD0Ev
Library: ScePafWidget function: _ZN3paf2ui6WidgetD2Ev
Library: ScePafWidget function: _ZN3paf2ui6Widget13DestroyWidgetEv
Library: ScePafWidget function: _ZN3paf2ui6Widget13IsPrepareObjsEv
Library: ScePafWidget function: _ZN3paf2ui6Widget16HandleTouchEventEPNS0_5EventE
Library: ScePafWidget function: _ZN3paf2ui6Widget18HandleKeycodeEventEPNS0_5EventE
Library: ScePafWidget function: _ZN3paf2ui6Widget22HandleFocusSwitchEventEPNS0_5EventE
Library: ScePafWidget function: _ZN3paf2ui6Widget16EnableFocusEventEb
Library: ScePafWidget function: _ZN3paf2ui6Widget17IsMorphResolutionERjS2_RfS3_
Library: ScePafWidget function: _ZNK3paf2ui6Widget20get_resolution_data2EPKNS0_14ResolutionDataEjjjPS4_S5_
Library: ScePafWidget function: _ZN3paf2ui6Widget19SetBaseDestroyCountEi
Library: ScePafWidget function: _ZN3paf2ui6Widget19GetBaseDestroyCountEv
Library: ScePafWidget function: _ZN3paf2ui6Widget8FindAnimEi
Library: ScePafWidget function: _ZN3paf2ui6Widget22GetAlignOffsetToCenterEi
Library: ScePafWidget function: _ZN3paf2ui6Widget7GetSizeEi
Library: ScePafWidget function: _ZN3paf2ui6Widget12UpdateMatrixEv
Library: ScePafWidget function: _ZN3paf2ui6Widget29GetAlignOffsetToRotatedCenterEi
Library: ScePafWidget function: _ZN3paf2ui6Widget6GetPosEiPS1_RKNS_4math2v4E
Library: ScePafWidget function: _ZNK3paf2ui6Widget9IsInheritEPKc
Library: ScePafWidget function: _ZNK3paf2ui6Widget11GetTypeNameEv
Library: ScePafWidget function: _ZN3paf2ui6Widget8TypeNameEv
Library: ScePafWidget function: _ZN3paf2ui6Widget20CountPrepareChildrenEi
Library: ScePafWidget function: _ZN3paf2ui6Widget19NotifyAnimatorDirtyEj
Library: ScePafWidget function: _ZN3paf2ui6Widget11ChangeStateEji
Library: ScePafWidget function: _ZNK3paf2ui6Widget9GetCameraEv
Library: ScePafWidget function: _ZN3paf2ui6Widget15SetAnimListenerEiPNS0_12AnimListenerEi
Library: ScePafWidget function: _ZN3paf2ui6Widget25SetAnimListener_withDelayEiPNS0_12AnimListenerEfi
Library: ScePafWidget function: _ZN3paf2ui6Widget12KillAnimTypeEi
Library: ScePafWidget function: _ZN3paf2ui6Widget12SetMetaAlphaEfPNS_5TimerEiifPFvS3_PNS0_12AnimListenerEPvS6_S6_ES6_
Library: ScePafWidget function: _ZN3paf2ui6Widget17SetMetaAlpha_coreEf
Library: ScePafWidget function: _ZN3paf2ui6Widget17NotifyLayoutDirtyEj
Library: ScePafWidget function: _ZN3paf2ui6Widget18SetSize_core_forceERKNS_4math2v4Ejb
Library: ScePafWidget function: _ZN3paf2ui6Widget12SetShowAlphaEfPNS_5TimerEiifPFvS3_PNS0_12AnimListenerEPvS6_S6_E
Library: ScePafWidget function: _ZN3paf2ui6Widget4ShowEPNS_5TimerEifPFvS3_PNS0_12AnimListenerEPvS6_S6_E nidvalue: 0xFF5BC957
Library: ScePafWidget function: _ZN3paf2ui6Widget4HideEPNS_5TimerEifPFvS3_PNS0_12AnimListenerEPvS6_S6_E nidvalue: 0x4588699E
Library: ScePafWidget function: _ZN3paf2ui6Widget10SetKeycodeEj nidvalue: 0x21125870
Library: ScePafWidget function: _ZN3paf2ui6Widget12ClearKeycodeEj nidvalue: 0x164BFFA5
Library: ScePafWidget function: _ZN3paf2ui6Widget4ShowENS_6common10transition4TypeEfPFviPNS0_7HandlerEPNS0_5EventEPvES9_ nidvalue: 0x44B22ACA
Library: ScePafWidget function: _ZN3paf2ui6Widget4HideENS_6common10transition4TypeEfPFviPNS0_7HandlerEPNS0_5EventEPvES9_ nidvalue: 0xF1176ACC
Library: ScePafWidget function: _ZN3paf2ui6Widget13SetLoopEffectENS0_10LoopEffectEb nidvalue: 0x7602488B
Library: ScePafWidget function: _ZN3paf2ui6Widget17set_activate_coreEb nidvalue: 0x931AD41E

Library: ScePafWidget function: _ZNK3paf2ui14ScrollViewBase9IsInheritEPKc
Library: ScePafWidget function: _ZNK3paf2ui14ScrollViewBase11GetTypeNameEv
Library: ScePafWidget function: _ZN3paf2ui14ScrollViewBase8TypeNameEv
Library: ScePafWidget function: _ZN3paf2ui14ScrollViewBase14ResetScrollBarERPNS0_9ScrollBarES3_
Library: ScePafWidget function: _ZN3paf2ui14ScrollViewBase20SetVerticalScrollBarEPNS0_9ScrollBarE
Library: ScePafWidget function: _ZN3paf2ui14ScrollViewBase22SetHorizontalScrollBarEPNS0_9ScrollBarE
Library: ScePafWidget function: _ZN3paf2ui14ScrollViewBase22SetScrollBarControllerEPNS0_29ScrollViewScrollBarControllerE
Library: ScePafWidget function: _ZN3paf2ui14ScrollViewBase4SnapC1ERKNS0_19ScrollViewSnapPointE
Library: ScePafWidget function: _ZN3paf2ui14ScrollViewBase12AddSnapPointERKNS0_19ScrollViewSnapPointE
Library: ScePafWidget function: _ZN3paf2ui14ScrollViewBase13FindSnapPointEi
Library: ScePafWidget function: _ZN3paf2ui14ScrollViewBase12DelSnapPointEi
Library: ScePafWidget function: _ZN3paf2ui14ScrollViewBase12GetSnapPointEi
Library: ScePafWidget function: _ZN3paf2ui14ScrollViewBase10FindSnapIDERKNS0_19ScrollViewSnapPointE
Library: ScePafWidget function: _ZN3paf2ui14ScrollViewBase15UpdateSnapPointEiRKNS0_19ScrollViewSnapPointE
Library: ScePafWidget function: _ZN3paf2ui14ScrollViewBase12SetSnapPowerEf
Library: ScePafWidget function: _ZN3paf2ui14ScrollViewBase12GetSnapPowerEv
Library: ScePafWidget function: _ZN3paf2ui14ScrollViewBase9SendEventEiiiii
Library: ScePafWidget function: _ZN3paf2ui14ScrollViewBase6DoSnapEiPNS_5TimerE
Library: ScePafWidget function: _ZN3paf2ui14ScrollViewBase21SetPreferredSnapPointEifi
Library: ScePafWidget function: _ZN3paf2ui14ScrollViewBaseD1Ev
Library: ScePafWidget function: _ZN3paf2ui14ScrollViewBaseD0Ev
Library: ScePafWidget function: _ZN3paf2ui14ScrollViewBaseD2Ev
Library: ScePafWidget function: _ZN3paf2ui14ScrollViewBase19UpdateAfterChildrenEv
Library: ScePafWidget function: _ZN3paf2ui14ScrollViewBase10UpdatePostEv
Library: ScePafWidget function: _ZN3paf2ui14ScrollViewBase10TrackBeginEPNS0_5EventE
Library: ScePafWidget function: _ZN3paf2ui14ScrollViewBase8TrackEndEPNS0_5EventE
Library: ScePafWidget function: _ZN3paf2ui14ScrollViewBase10TrackPressEPNS0_5EventE
Library: ScePafWidget function: _ZN3paf2ui14ScrollViewBase12TrackReleaseEPNS0_5EventE
Library: ScePafWidget function: _ZN3paf2ui14ScrollViewBase9TrackGrabEPNS0_5EventE
Library: ScePafWidget function: _ZN3paf2ui14ScrollViewBase9TrackMoveEPNS0_5EventE
Library: ScePafWidget function: _ZN3paf2ui14ScrollViewBase9TrackDragEPNS0_5EventE
Library: ScePafWidget function: _ZN3paf2ui14ScrollViewBase10MochiBeginEPNS0_5EventE
Library: ScePafWidget function: _ZN3paf2ui14ScrollViewBase9MochiMoveEPNS0_5EventE
Library: ScePafWidget function: _ZN3paf2ui14ScrollViewBase12GetViewFocusEv
Library: ScePafWidget function: _ZN3paf2ui14ScrollViewBase18GetViewFocusTargetEv
Library: ScePafWidget function: _ZN3paf2ui14ScrollViewBase19BlockUpdateViewPortEv
Library: ScePafWidget function: _ZN3paf2ui14ScrollViewBase21UnblockUpdateViewPortEv
Library: ScePafWidget function: _ZN3paf2ui14ScrollViewBase19SetDefaultScrollBarEv
Library: ScePafWidget function: _ZN3paf2ui14ScrollViewBaseC1EPNS0_6WidgetEPNS2_11CreateParamE
Library: ScePafWidget function: _ZN3paf2ui14ScrollViewBaseC2EPNS0_6WidgetEPNS2_11CreateParamE
Library: ScePafWidget function: _ZN3paf2ui14ScrollViewBase9SetStringERKNS_12basic_stringIwNS_11char_traitsIwEENS_9allocatorIwEEEEi
Library: ScePafWidget function: _ZN3paf2ui14ScrollViewBase9GetStringERNS_12basic_stringIwNS_11char_traitsIwEENS_9allocatorIwEEEEi
Library: ScePafWidget function: _ZN3paf2ui14ScrollViewBase10SetTextureERKNS_13intrusive_ptrINS_5graph7SurfaceEEEij
Library: ScePafWidget function: _ZN3paf2ui14ScrollViewBase10GetTextureERNS_13intrusive_ptrINS_5graph7SurfaceEEEij
Library: ScePafWidget function: _ZN3paf2ui14ScrollViewBase17GetInternalWidgetEv
Library: ScePafWidget function: _ZN3paf2ui14ScrollViewBase13DestroyWidgetEv
Library: ScePafWidget function: _ZN3paf2ui14ScrollViewBase10CheckStateEv
Library: ScePafWidget function: _ZN3paf2ui14ScrollViewBase10UpdateSizeEv
Library: ScePafWidget function: _ZN3paf2ui14ScrollViewBase18HandleTouchFwEventEPNS0_5EventE
Library: ScePafWidget function: _ZN3paf2ui14ScrollViewBase16HandleTouchEventEPNS0_5EventE
Library: ScePafWidget function: _ZN3paf2ui14ScrollViewBase19OnViewLayoutUpdatedEb
Library: ScePafWidget function: _ZN3paf2ui14ScrollViewBase20SendFocusChangeEventEv
Library: ScePafWidget function: _ZN3paf2ui14ScrollViewBase20OnPartsLayoutUpdatedEb
Library: ScePafWidget function: _ZN3paf2ui14ScrollViewBase10SetViewBoxERKNS_4math2v4E
Library: ScePafWidget function: _ZN3paf2ui14ScrollViewBase17UpdateScrollRangeEv
Library: ScePafWidget function: _ZN3paf2ui14ScrollViewBase18UpdateScrollLayoutEv
Library: ScePafWidget function: _ZN3paf2ui14ScrollViewBase22UpdateMovableDirectionEv
Library: ScePafWidget function: _ZN3paf2ui14ScrollViewBase17OnChildRegisteredEPNS0_6WidgetE
Library: ScePafWidget function: _ZN3paf2ui14ScrollViewBase14OnChildRemovedEPNS0_6WidgetE
Library: ScePafWidget function: _ZN3paf2ui14ScrollViewBase14OnDestroyTimerEPNS0_15ScrollViewTimerE
Library: ScePafWidget function: _ZN3paf2ui14ScrollViewBase18CBScrollBarChangedEiPNS0_7HandlerEPNS0_5EventEPv
Library: ScePafWidget function: _ZN3paf2ui14ScrollViewBase18OnScrollBarChangedEiPNS0_7HandlerEPNS0_5EventE
Library: ScePafWidget function: _ZN3paf2ui14ScrollViewBase4SnapC2ERKNS0_19ScrollViewSnapPointE

Library: ScePafWidget function: _ZNK3paf2ui19ScrollViewBaseParam12GetParamNameEv
Library: ScePafWidget function: _ZN3paf2ui19ScrollViewBaseParam9ParamNameEv
Library: ScePafWidget function: _ZN3paf2ui19ScrollViewBaseParamC1Ev
Library: ScePafWidget function: _ZN3paf2ui19ScrollViewBaseParamC2Ev
Library: ScePafWidget function: _ZN3paf2ui19ScrollViewBaseParam6CreateEi
Library: ScePafWidget function: _ZN3paf2ui19ScrollViewBaseParam3SetEv
Library: ScePafWidget function: _ZN3paf2ui19ScrollViewBaseParam3GetEv

Library: ScePafWidget function: _ZNK3paf2ui24ScrollViewBaseStyleParam12GetParamNameEv
Library: ScePafWidget function: _ZN3paf2ui24ScrollViewBaseStyleParam9ParamNameEv
Library: ScePafWidget function: _ZN3paf2ui24ScrollViewBaseStyleParamC1Ev
Library: ScePafWidget function: _ZN3paf2ui24ScrollViewBaseStyleParamC2Ev

Library: ScePafWidget function: _ZN3paf2ui10ButtonBase10UpdateSizeEv
Library: ScePafWidget function: _ZN3paf2ui10ButtonBase6OnDrawERNS_5graph8DrawInfoE
Library: ScePafWidget function: _ZN3paf2ui10ButtonBase9SetStringERKNS_12basic_stringIwNS_11char_traitsIwEENS_9allocatorIwEEEEi
Library: ScePafWidget function: _ZN3paf2ui10ButtonBase9GetStringERNS_12basic_stringIwNS_11char_traitsIwEENS_9allocatorIwEEEEi
Library: ScePafWidget function: _ZN3paf2ui10ButtonBase10SetTextureERKNS_13intrusive_ptrINS_5graph7SurfaceEEEij
Library: ScePafWidget function: _ZN3paf2ui10ButtonBase10GetTextureERNS_13intrusive_ptrINS_5graph7SurfaceEEEij
Library: ScePafWidget function: _ZN3paf2ui10ButtonBase17ChangeButtonStateENS1_11ButtonStateE
Library: ScePafWidget function: _ZN3paf2ui10ButtonBase6UpdateEv
Library: ScePafWidget function: _ZN3paf2ui10ButtonBase13SetButtonModeEj
Library: ScePafWidget function: _ZN3paf2ui10ButtonBase12EnableRepeatEjj
Library: ScePafWidget function: _ZN3paf2ui10ButtonBaseC1EPNS0_6WidgetEPNS2_11CreateParamE
Library: ScePafWidget function: _ZNK3paf2ui10ButtonBase9IsInheritEPKc
Library: ScePafWidget function: _ZNK3paf2ui10ButtonBase11GetTypeNameEv
Library: ScePafWidget function: _ZN3paf2ui10ButtonBase8TypeNameEv
Library: ScePafWidget function: _ZN3paf2ui10ButtonBaseC2EPNS0_6WidgetEPNS2_11CreateParamE
Library: ScePafWidget function: _ZN3paf2ui10ButtonBaseD1Ev
Library: ScePafWidget function: _ZN3paf2ui10ButtonBaseD0Ev
Library: ScePafWidget function: _ZN3paf2ui10ButtonBaseD2Ev
Library: ScePafWidget function: _ZN3paf2ui10ButtonBase16HandleTouchEventEPNS0_5EventE
Library: ScePafWidget function: _ZN3paf2ui10ButtonBase18HandleKeycodeEventEPNS0_5EventE
Library: ScePafWidget function: _ZN3paf2ui10ButtonBase10CheckStateEv
Library: ScePafWidget function: _ZN3paf2ui10ButtonBase6EnableEb
Library: ScePafWidget function: _ZN3paf2ui10ButtonBase7DisableEb

Library: ScePafWidget function: _ZNK3paf2ui22ButtonBaseHandlerParam12GetParamNameEv
Library: ScePafWidget function: _ZN3paf2ui22ButtonBaseHandlerParam9ParamNameEv
Library: ScePafWidget function: _ZN3paf2ui22ButtonBaseHandlerParamC2Ev
Library: ScePafWidget function: _ZN3paf2ui22ButtonBaseHandlerParamC1Ev

Library: ScePafWidget function: _ZN3paf2ui15StateButtonBaseC1EPNS0_6WidgetEPNS2_11CreateParamE
Library: ScePafWidget function: _ZNK3paf2ui15StateButtonBase9IsInheritEPKc
Library: ScePafWidget function: _ZNK3paf2ui15StateButtonBase11GetTypeNameEv
Library: ScePafWidget function: _ZN3paf2ui15StateButtonBase8TypeNameEv
Library: ScePafWidget function: _ZN3paf2ui15StateButtonBase9DoTexAnimEbf
Library: ScePafWidget function: _ZN3paf2ui15StateButtonBase9SendEventEiiiii
Library: ScePafWidget function: _ZN3paf2ui15StateButtonBaseC2EPNS0_6WidgetEPNS2_11CreateParamE
Library: ScePafWidget function: _ZN3paf2ui15StateButtonBase14OnButtonDecideEv
Library: ScePafWidget function: _ZN3paf2ui15StateButtonBase8SetCheckEbfb

Library: ScePafWidget function: _ZN3paf2ui25StateButtonBaseStyleParamC1Ev
Library: ScePafWidget function: _ZNK3paf2ui25StateButtonBaseStyleParam12GetParamNameEv
Library: ScePafWidget function: _ZN3paf2ui25StateButtonBaseStyleParam9ParamNameEv
Library: ScePafWidget function: _ZN3paf2ui25StateButtonBaseStyleParamC2Ev
Library: ScePafWidget function: _ZN3paf2ui25StateButtonBaseStyleParam6CreateEi
Library: ScePafWidget function: _ZN3paf2ui25StateButtonBaseStyleParam7SetEachEPNS0_6WidgetE
Library: ScePafWidget function: _ZN3paf2ui25StateButtonBaseStyleParam7GetEachEPNS0_6WidgetE

Library: ScePafWidget function: _ZN3paf2ui6ButtonD1Ev
Library: ScePafWidget function: _ZN3paf2ui6ButtonD0Ev
Library: ScePafWidget function: _ZN3paf2ui6ButtonD2Ev
Library: ScePafWidget function: _ZN3paf2ui6Button10SetTextureERKNS_13intrusive_ptrINS_5graph7SurfaceEEE
Library: ScePafWidget function: _ZNK3paf2ui6Button9IsInheritEPKc
Library: ScePafWidget function: _ZNK3paf2ui6Button11GetTypeNameEv
Library: ScePafWidget function: _ZN3paf2ui6Button8TypeNameEv
Library: ScePafWidget function: _ZN3paf2ui6ButtonC1EPNS0_6WidgetEPNS2_11CreateParamE
Library: ScePafWidget function: _ZN3paf2ui6ButtonC2EPNS0_6WidgetEPNS2_11CreateParamE
Library: ScePafWidget function: _ZN3paf2ui6Button16UpdateAdjustSizeEv
Library: ScePafWidget function: _ZN3paf2ui6Button14UpdateObjsSizeEv
Library: ScePafWidget function: _ZN3paf2ui6Button16UpdateButtonSizeEv
Library: ScePafWidget function: _ZNK3paf2ui6Button14GetFitGeometryEPNS_4math2v4ES4_
Library: ScePafWidget function: _ZN3paf2ui6Button22GetChildrenFitGeometryEPNS_4math2v4ES4_
Library: ScePafWidget function: _ZNK3paf2ui6Button13GetLayoutSizeERKNS_4math2v4ES5_
Library: ScePafWidget function: _ZN3paf2ui6Button16SetStyleAnimatorENS1_9StyleTypeE
Library: ScePafWidget function: _ZN3paf2ui6Button17ChangeButtonStateENS0_10ButtonBase11ButtonStateE

Library: ScePafWidget function: _ZN3paf2ui16ButtonStyleParamC1Ev
Library: ScePafWidget function: _ZN3paf2ui16ButtonStyleParamD1Ev
Library: ScePafWidget function: _ZN3paf2ui16ButtonStyleParamD0Ev
Library: ScePafWidget function: _ZN3paf2ui16ButtonStyleParamC2Ev
Library: ScePafWidget function: _ZN3paf2ui16ButtonStyleParamD2Ev
Library: ScePafWidget function: _ZNK3paf2ui16ButtonStyleParam12GetParamNameEv
Library: ScePafWidget function: _ZN3paf2ui16ButtonStyleParam9ParamNameEv
Library: ScePafWidget function: _ZN3paf2ui16ButtonStyleParam4InitEv
Library: ScePafWidget function: _ZN3paf2ui16ButtonStyleParam6CreateEi
Library: ScePafWidget function: _ZN3paf2ui16ButtonStyleParam7SetEachEPNS0_6WidgetE
Library: ScePafWidget function: _ZN3paf2ui16ButtonStyleParam7GetEachEPNS0_6WidgetE
Library: ScePafWidget variable: _ZTVN3paf2ui16ButtonStyleParamE
Library: ScePafWidget variable: _ZN3paf2ui16ButtonStyleParam12m_param_nameE

Library: ScePafWidget function: _ZN3paf2ui11ButtonParamC1Ev
Library: ScePafWidget function: _ZNK3paf2ui11ButtonParam12GetParamNameEv
Library: ScePafWidget function: _ZN3paf2ui11ButtonParam9ParamNameEv
Library: ScePafWidget function: _ZN3paf2ui11ButtonParamC2Ev

Library: ScePafWidget function: _ZNK3paf2ui18ButtonHandlerParam12GetParamNameEv
Library: ScePafWidget function: _ZN3paf2ui18ButtonHandlerParam9ParamNameEv

Library: ScePafWidget function: _ZNK3paf2ui5Scene9IsInheritEPKc
Library: ScePafWidget function: _ZNK3paf2ui5Scene11GetTypeNameEv
Library: ScePafWidget function: _ZN3paf2ui5Scene8TypeNameEv
Library: ScePafWidget function: _ZN3paf2ui5Scene13SetDebugFocusEPNS0_6WidgetE
Library: ScePafWidget function: _ZN3paf2ui5Scene12SetDebugModeEj
Library: ScePafWidget function: _ZN3paf2ui5Scene19IsResolutionActRollEi
Library: ScePafWidget function: _ZN3paf2ui5Scene15ResetCameraRollEf
Library: ScePafWidget function: _ZN3paf2ui5Scene20IsResolutionActMorphEi
Library: ScePafWidget function: _ZN3paf2ui5SceneD1Ev
Library: ScePafWidget function: _ZN3paf2ui5SceneD0Ev
Library: ScePafWidget function: _ZN3paf2ui5SceneD2Ev
Library: ScePafWidget function: _ZN3paf2ui5Scene13DestroyWidgetEv
Library: ScePafWidget function: _ZN3paf2ui5Scene16UpdateAdjustSizeEv
Library: ScePafWidget function: _ZN3paf2ui5Scene9DrawSceneEb
Library: ScePafWidget function: _ZN3paf2ui5Scene18HandleKeycodeEventEPNS0_5EventE
Library: ScePafWidget function: _ZN3paf2ui5Scene17HandleSystemEventEPNS0_5EventE
Library: ScePafWidget function: _ZN3paf2ui5Scene9SetCameraEPNS0_6CameraE
Library: ScePafWidget function: _ZN3paf2ui5SceneC1EPNS0_11EnvironmentEiPNS0_6Widget11CreateParamEPNS0_16EnvironmentParamEj nidvalue: 0xECB1A10D
Library: ScePafWidget function: _ZN3paf2ui5SceneC2EPNS0_11EnvironmentEiPNS0_6Widget11CreateParamEPNS0_16EnvironmentParamEj nidvalue: 0xD150D035

Library: ScePafWidget function: _ZN3paf2ui4Text8TypeNameEv
Library: ScePafWidget function: _ZN3paf2ui4TextC2EPNS0_6WidgetEPNS2_11CreateParamE
Library: ScePafWidget function: _ZN3paf2ui4TextD1Ev
Library: ScePafWidget function: _ZN3paf2ui4TextD0Ev
Library: ScePafWidget function: _ZN3paf2ui4TextD2Ev
Library: ScePafWidget function: _ZN3paf2ui4Text16HandleTouchEventEPNS0_5EventE
Library: ScePafWidget function: _ZN3paf2ui4Text10CheckStateEv
Library: ScePafWidget function: _ZN3paf2ui4Text18SetLayoutAttributeENS_5graph19TextLayoutAttributeEb
Library: ScePafWidget function: _ZN3paf2ui4Text11ChangeStateEji
Library: ScePafWidget function: _ZN3paf2ui4Text18SetLayoutAttributeENS_5graph19TextLayoutAttributeERKNS_4math2v2E
Library: ScePafWidget function: _ZN3paf2ui4Text10UpdateSizeEv
Library: ScePafWidget function: _ZN3paf2ui4Text6OnDrawERNS_5graph8DrawInfoE
Library: ScePafWidget function: _ZN3paf2ui4Text14CreatePlaneObjEv
Library: ScePafWidget function: _ZN3paf2ui4Text10SetTextureERKNS_13intrusive_ptrINS_5graph7SurfaceEEEij
Library: ScePafWidget function: _ZN3paf2ui4Text9SetStringERKNS_12basic_stringIwNS_11char_traitsIwEENS_9allocatorIwEEEEi
Library: ScePafWidget function: _ZN3paf2ui4Text9GetStringERNS_12basic_stringIwNS_11char_traitsIwEENS_9allocatorIwEEEEi
Library: ScePafWidget function: _ZN3paf2ui4Text18SetLayoutAttributeENS_5graph19TextLayoutAttributeEi
Library: ScePafWidget function: _ZN3paf2ui4Text18GetLayoutAttributeENS_5graph19TextLayoutAttributeERi
Library: ScePafWidget function: _ZN3paf2ui4Text18SetLayoutAttributeENS_5graph19TextLayoutAttributeEf
Library: ScePafWidget function: _ZN3paf2ui4Text18GetLayoutAttributeENS_5graph19TextLayoutAttributeERf
Library: ScePafWidget function: _ZN3paf2ui4Text18GetLayoutAttributeENS_5graph19TextLayoutAttributeERNS_4math2v2E
Library: ScePafWidget function: _ZN3paf2ui4Text18GetLayoutAttributeENS_5graph19TextLayoutAttributeERb
Library: ScePafWidget function: _ZN3paf2ui4Text17SetStyleAttributeENS_5graph18TextStyleAttributeEjji
Library: ScePafWidget function: _ZN3paf2ui4Text17GetStyleAttributeENS_5graph18TextStyleAttributeEjRi
Library: ScePafWidget function: _ZN3paf2ui4Text17SetStyleAttributeENS_5graph18TextStyleAttributeEjjf
Library: ScePafWidget function: _ZN3paf2ui4Text8EndTouchEv
Library: ScePafWidget function: _ZN3paf2ui4Text13SetVisiblePosERKNS_4math2v2E
Library: ScePafWidget function: _ZN3paf2ui4Text10AdjustSizeEv
Library: ScePafWidget function: _ZN3paf2ui4TextC1EPNS0_6WidgetEPNS2_11CreateParamE
Library: ScePafWidget function: _ZN3paf2ui4Text10SetCharPosEjRKNS_4math2v2E
Library: ScePafWidget function: _ZN3paf2ui4Text9GetLengthERj
Library: ScePafWidget function: _ZNK3paf2ui4Text9IsInheritEPKc
Library: ScePafWidget function: _ZNK3paf2ui4Text11GetTypeNameEv
Library: ScePafWidget function: _ZN3paf2ui4Text15GetCaretVisibleERb
Library: ScePafWidget function: _ZN3paf2ui4Text13SetCaretColorERKNS_4math2v4E
Library: ScePafWidget function: _ZN3paf2ui4Text13GetCaretColorERNS_4math2v4E
Library: ScePafWidget function: _ZN3paf2ui4Text17SetSelectionColorERKNS_4math2v4E
Library: ScePafWidget function: _ZN3paf2ui4Text17GetSelectionColorERNS_4math2v4E
Library: ScePafWidget function: _ZN3paf2ui4Text10InvalidateEv
Library: ScePafWidget function: _ZN3paf2ui4Text16SetSelectionModeEb
Library: ScePafWidget function: _ZN3paf2ui4Text16GetSelectionModeERb
Library: ScePafWidget function: _ZN3paf2ui4Text15StartAutoScrollENS1_10ScrollTypeE
Library: ScePafWidget function: _ZN3paf2ui4Text14StopAutoScrollEv
Library: ScePafWidget function: _ZN3paf2ui4Text17calc_align_offsetERKNS_4math2v4ES5_jjj
Library: ScePafWidget function: _ZN3paf2ui4Text18calc_origin_offsetERKNS_4math2v4ES5_jjj
Library: ScePafWidget function: _ZN3paf2ui4Text18calc_anchor_offsetERKNS_4math2v4ES5_jjj
Library: ScePafWidget function: _ZN3paf2ui4Text16HandleTouchPressEPNS0_5EventE
Library: ScePafWidget function: _ZN3paf2ui4Text15HandleTouchMoveEPNS0_5EventE
Library: ScePafWidget function: _ZN3paf2ui4Text10BeginTouchERKNS_4math2v2E
Library: ScePafWidget function: _ZN3paf2ui4Text11UpdateTouchERKNS_4math2v2E
Library: ScePafWidget function: _ZN3paf2ui4Text17GetStyleAttributeENS_5graph18TextStyleAttributeEjRf
Library: ScePafWidget function: _ZN3paf2ui4Text17SetStyleAttributeENS_5graph18TextStyleAttributeEjjRKNS_4math2v4E
Library: ScePafWidget function: _ZN3paf2ui4Text17GetStyleAttributeENS_5graph18TextStyleAttributeEjRNS_4math2v4E
Library: ScePafWidget function: _ZN3paf2ui4Text17SetStyleAttributeENS_5graph18TextStyleAttributeEjjb
Library: ScePafWidget function: _ZN3paf2ui4Text17GetStyleAttributeENS_5graph18TextStyleAttributeEjRb
Library: ScePafWidget function: _ZN3paf2ui4Text8SetStyleEjjRKNS_5graph9TextStyleE
Library: ScePafWidget function: _ZN3paf2ui4Text8GetStyleEjRNS_5graph9TextStyleE
Library: ScePafWidget function: _ZN3paf2ui4Text19SetAttributedStringERKNS_5graph16AttributedStringE
Library: ScePafWidget function: _ZN3paf2ui4Text19GetAttributedStringERNS_5graph16AttributedStringE
Library: ScePafWidget function: _ZN3paf2ui4Text9GetBoundsERNS_4math2v2E
Library: ScePafWidget function: _ZN3paf2ui4Text12GetLineCountERj
Library: ScePafWidget function: _ZN3paf2ui4Text11GetCharInfoEjRNS_5graph18TextLayoutCharInfoE
Library: ScePafWidget function: _ZN3paf2ui4Text11GetLineInfoEjRNS_5graph18TextLayoutLineInfoE
Library: ScePafWidget function: _ZN3paf2ui4Text12GetNextUpHitEjRj
Library: ScePafWidget function: _ZN3paf2ui4Text14GetNextDownHitEjRj
Library: ScePafWidget function: _ZN3paf2ui4Text14GetNextLeftHitEjRj
Library: ScePafWidget function: _ZN3paf2ui4Text15GetNextRightHitEjRj
Library: ScePafWidget function: _ZN3paf2ui4Text11MoveCaretUpEv
Library: ScePafWidget function: _ZN3paf2ui4Text13MoveCaretDownEv
Library: ScePafWidget function: _ZN3paf2ui4Text13MoveCaretLeftEv
Library: ScePafWidget function: _ZN3paf2ui4Text14MoveCaretRightEv
Library: ScePafWidget function: _ZN3paf2ui4Text11SetCaretPosERKNS_4math2v2E
Library: ScePafWidget function: _ZN3paf2ui4Text15SetSelectionPosERKNS_4math2v2ES5_
Library: ScePafWidget function: _ZN3paf2ui4Text13SetCaretIndexEj
Library: ScePafWidget function: _ZN3paf2ui4Text13GetCaretIndexERj
Library: ScePafWidget function: _ZN3paf2ui4Text17SetSelectionRangeEjj
Library: ScePafWidget function: _ZN3paf2ui4Text17GetSelectionRangeERjS2_
Library: ScePafWidget function: _ZN3paf2ui4Text15SetCaretVisibleEb
Library: ScePafWidget function: _ZN3paf2ui4Text18HandleTouchReleaseEv
Library: ScePafWidget function: _ZN3paf2ui4Text17SetStyleAttributeENS_5graph18TextStyleAttributeEjjRKNS_4math2v2E
Library: ScePafWidget function: _ZN3paf2ui4Text17GetStyleAttributeENS_5graph18TextStyleAttributeEjRNS_4math2v2E

Library: ScePafWidget function: _ZNK3paf2ui14TextStyleParam12GetParamNameEv
Library: ScePafWidget function: _ZN3paf2ui14TextStyleParam9ParamNameEv
Library: ScePafWidget function: _ZN3paf2ui14TextStyleParamC2Ev
Library: ScePafWidget function: _ZN3paf2ui14TextStyleParamD1Ev
Library: ScePafWidget function: _ZN3paf2ui14TextStyleParamD0Ev
Library: ScePafWidget function: _ZN3paf2ui14TextStyleParamD2Ev
Library: ScePafWidget function: _ZN3paf2ui14TextStyleParam6CreateEi
Library: ScePafWidget function: _ZN3paf2ui14TextStyleParam7SetEachEPNS0_6WidgetE
Library: ScePafWidget function: _ZN3paf2ui14TextStyleParam7GetEachEPNS0_6WidgetE
Library: ScePafWidget function: _ZN3paf2ui14TextStyleParamC1Ev

Library: ScePafWidget function: _ZNK3paf2ui9TextParam12GetParamNameEv
Library: ScePafWidget function: _ZN3paf2ui9TextParam9ParamNameEv
Library: ScePafWidget function: _ZN3paf2ui9TextParamC2Ev
Library: ScePafWidget function: _ZN3paf2ui9TextParamD1Ev
Library: ScePafWidget function: _ZN3paf2ui9TextParamD0Ev
Library: ScePafWidget function: _ZN3paf2ui9TextParamD2Ev
Library: ScePafWidget function: _ZN3paf2ui9TextParam6CreateEi
Library: ScePafWidget function: _ZN3paf2ui9TextParam3SetEv
Library: ScePafWidget function: _ZN3paf2ui9TextParam3GetEv
Library: ScePafWidget function: _ZN3paf2ui9TextParamC1Ev

Library: ScePafWidget function: _ZN3paf2ui8RichTextD2Ev
Library: ScePafWidget function: _ZN3paf2ui8RichText5ClearEv
Library: ScePafWidget function: _ZN3paf2ui8RichText11scroll_downEf
Library: ScePafWidget function: _ZN3paf2ui8RichText9scroll_upEf
Library: ScePafWidget function: _ZN3paf2ui8RichText13SetVisibleTopEf
Library: ScePafWidget function: _ZN3paf2ui8RichText8SetCTextEPKcj
Library: ScePafWidget function: _ZN3paf2ui8RichText10SetTextureERKNS_13intrusive_ptrINS_5graph7SurfaceEEEij
Library: ScePafWidget function: _ZN3paf2ui8RichText13GetItemWidgetEi
Library: ScePafWidget function: _ZNK3paf2ui8RichText11GetItemTypeEi
Library: ScePafWidget function: _ZNK3paf2ui8RichText10GetItemUrlEiRNS_12basic_stringIcNS_11char_traitsIcEENS_9allocatorIcEEEE
Library: ScePafWidget function: _ZN3paf2ui8RichTextC1EPNS0_6WidgetEPNS2_11CreateParamE
Library: ScePafWidget function: _ZNK3paf2ui8RichText9IsInheritEPKc
Library: ScePafWidget function: _ZNK3paf2ui8RichText11GetTypeNameEv
Library: ScePafWidget function: _ZN3paf2ui8RichText8TypeNameEv
Library: ScePafWidget function: _ZN3paf2ui8RichTextC2EPNS0_6WidgetEPNS2_11CreateParamE
Library: ScePafWidget function: _ZN3paf2ui8RichTextD1Ev
Library: ScePafWidget function: _ZN3paf2ui8RichTextD0Ev
Library: ScePafWidget function: _ZNK3paf2ui8RichText11GetImageUrlEiRNS_12basic_stringIcNS_11char_traitsIcEENS_9allocatorIcEEEE
Library: ScePafWidget function: _ZN3paf2ui8RichText16GetHtmlImageSizeEiRNS_4math2v4E
Library: ScePafWidget function: _ZN3paf2ui8RichText12SetImageSizeEiRKNS_4math2v4E
Library: ScePafWidget function: _ZN3paf2ui8RichText6UpdateEv
Library: ScePafWidget function: _ZN3paf2ui8RichText10UpdateSizeEv
Library: ScePafWidget function: _ZN3paf2ui8RichText20OnPartsLayoutUpdatedEb

Library: ScePafWidget function: _ZNK3paf2ui8RadioBox9IsInheritEPKc
Library: ScePafWidget function: _ZNK3paf2ui8RadioBox11GetTypeNameEv
Library: ScePafWidget function: _ZN3paf2ui8RadioBox8TypeNameEv
Library: ScePafWidget function: _ZN3paf2ui8RadioBox9SetSliderEPNS0_6WidgetE
Library: ScePafWidget function: _ZN3paf2ui8RadioBoxC2EPNS0_6WidgetEPNS2_11CreateParamE
Library: ScePafWidget function: _ZN3paf2ui8RadioBoxC1EPNS0_6WidgetEPNS2_11CreateParamE
Library: ScePafWidget function: _ZN3paf2ui8RadioBox13DestroyWidgetEv
Library: ScePafWidget function: _ZN3paf2ui8RadioBox6UpdateEv
Library: ScePafWidget function: _ZN3paf2ui8RadioBox14OnValueChangedEPNS0_11RadioButtonE
Library: ScePafWidget function: _ZN3paf2ui8RadioBox9SendEventEiiiii
Library: ScePafWidget function: _ZN3paf2ui8RadioBox16CBDestroyCheckedEPNS0_6WidgetEPv
Library: ScePafWidget function: _ZN3paf2ui8RadioBox16OnDestroyCheckedEPNS0_6WidgetE

Library: ScePafWidget function: _ZN3paf2ui13RadioBoxParamC1Ev
Library: ScePafWidget function: _ZNK3paf2ui13RadioBoxParam12GetParamNameEv
Library: ScePafWidget function: _ZN3paf2ui13RadioBoxParam9ParamNameEv
Library: ScePafWidget function: _ZN3paf2ui13RadioBoxParamC2Ev
Library: ScePafWidget function: _ZN3paf2ui13RadioBoxParam6CreateEi
Library: ScePafWidget function: _ZN3paf2ui13RadioBoxParam3SetEv
Library: ScePafWidget function: _ZN3paf2ui13RadioBoxParam3GetEv

Library: ScePafWidget function: _ZN3paf2ui10ScrollViewC1EPNS0_6WidgetEPNS2_11CreateParamE
Library: ScePafWidget function: _ZNK3paf2ui10ScrollView9IsInheritEPKc
Library: ScePafWidget function: _ZNK3paf2ui10ScrollView11GetTypeNameEv
Library: ScePafWidget function: _ZN3paf2ui10ScrollView8TypeNameEv
Library: ScePafWidget function: _ZN3paf2ui10ScrollView13GetViewParentEv
Library: ScePafWidget function: _ZN3paf2ui10ScrollView5ClearEv
Library: ScePafWidget function: _ZN3paf2ui10ScrollView12DelSnapChildEPNS0_6WidgetE
Library: ScePafWidget function: _ZN3paf2ui10ScrollView12AddSnapChildEPNS0_6WidgetE
Library: ScePafWidget function: _ZN3paf2ui10ScrollView11SetAutoSnapEb
Library: ScePafWidget function: _ZN3paf2ui10ScrollView9GetSnapIDEPNS0_6WidgetE
Library: ScePafWidget function: _ZN3paf2ui10ScrollView15AddIgnoredChildEPNS0_6WidgetE
Library: ScePafWidget function: _ZN3paf2ui10ScrollView15DelIgnoredChildEPNS0_6WidgetE
Library: ScePafWidget function: _ZN3paf2ui10ScrollViewC2EPNS0_6WidgetEPNS2_11CreateParamE
Library: ScePafWidget function: _ZN3paf2ui10ScrollView19OnViewLayoutUpdatedEb
Library: ScePafWidget function: _ZN3paf2ui10ScrollViewD1Ev
Library: ScePafWidget function: _ZN3paf2ui10ScrollViewD0Ev
Library: ScePafWidget function: _ZN3paf2ui10ScrollViewD2Ev
Library: ScePafWidget function: _ZN3paf2ui10ScrollView17OnChildRegisteredEPNS0_6WidgetE
Library: ScePafWidget function: _ZN3paf2ui10ScrollView14OnChildRemovedEPNS0_6WidgetE
Library: ScePafWidget function: _ZN3paf2ui10ScrollView13UpdateViewBoxEv
Library: ScePafWidget function: _ZN3paf2ui10ScrollView19UpdateAutoSnapPointEv
Library: ScePafWidget function: _ZN3paf2ui10ScrollView9IsIgnoredEPNS0_6WidgetE

Library: ScePafWidget function: _ZN3paf2ui15ScrollViewParamC1Ev
Library: ScePafWidget function: _ZNK3paf2ui15ScrollViewParam12GetParamNameEv
Library: ScePafWidget function: _ZN3paf2ui15ScrollViewParam9ParamNameEv
Library: ScePafWidget function: _ZN3paf2ui15ScrollViewParamC2Ev
Library: ScePafWidget function: _ZN3paf2ui15ScrollViewParam6CreateEi
Library: ScePafWidget function: _ZN3paf2ui15ScrollViewParam3SetEv
Library: ScePafWidget function: _ZN3paf2ui15ScrollViewParam3GetEv

Library: ScePafWidget function: _ZNK3paf2ui20ScrollViewStyleParam12GetParamNameEv
Library: ScePafWidget function: _ZN3paf2ui20ScrollViewStyleParam9ParamNameEv

Library: ScePafWidget function: _ZNK3paf2ui16ScrollViewParent9IsInheritEPKc
Library: ScePafWidget function: _ZNK3paf2ui16ScrollViewParent11GetTypeNameEv
Library: ScePafWidget function: _ZN3paf2ui16ScrollViewParent8TypeNameEv
Library: ScePafWidget function: _ZN3paf2ui16ScrollViewParentC1EPNS0_6WidgetEPNS2_11CreateParamE
Library: ScePafWidget function: _ZN3paf2ui16ScrollViewParentC2EPNS0_6WidgetEPNS2_11CreateParamE
Library: ScePafWidget function: _ZN3paf2ui16ScrollViewParentD1Ev
Library: ScePafWidget function: _ZN3paf2ui16ScrollViewParentD0Ev
Library: ScePafWidget function: _ZN3paf2ui16ScrollViewParentD2Ev
Library: ScePafWidget function: _ZN3paf2ui16ScrollViewParent11RemoveChildEPNS0_6WidgetE
Library: ScePafWidget function: _ZN3paf2ui16ScrollViewParent13RegisterChildEPNS0_6WidgetES3_
Library: ScePafWidget function: _ZN3paf2ui16ScrollViewParent10UpdatePostEv

Library: ScePafWidget function: _ZN3paf2ui15ScrollViewTimerC1EPNS0_14ScrollViewBaseENS1_9TimerTypeEfiiiPfi
Library: ScePafWidget function: _ZN3paf2ui15ScrollViewTimerC2EPNS0_14ScrollViewBaseENS1_9TimerTypeEfiiiPfi
Library: ScePafWidget function: _ZN3paf2ui15ScrollViewTimerD1Ev
Library: ScePafWidget function: _ZN3paf2ui15ScrollViewTimerD0Ev
Library: ScePafWidget function: _ZN3paf2ui15ScrollViewTimerD2Ev

Library: ScePafWidget function: _ZNK3paf2ui7TextBox11GetTypeNameEv
Library: ScePafWidget function: _ZN3paf2ui7TextBox8TypeNameEv
Library: ScePafWidget function: _ZN3paf2ui7TextBoxC2EPNS0_6WidgetEPNS2_11CreateParamE
Library: ScePafWidget function: _ZN3paf2ui7TextBoxD1Ev
Library: ScePafWidget function: _ZN3paf2ui7TextBoxD0Ev
Library: ScePafWidget function: _ZN3paf2ui7TextBoxD2Ev
Library: ScePafWidget function: _ZN3paf2ui7TextBox7EndEditEv
Library: ScePafWidget function: _ZN3paf2ui7TextBox13DestroyWidgetEv
Library: ScePafWidget function: _ZN3paf2ui7TextBox13SetCaretAlphaEf
Library: ScePafWidget function: _ZN3paf2ui7TextBox13SetCaretBlinkEv
Library: ScePafWidget function: _ZN3paf2ui7TextBox14SetCaretScrollEv
Library: ScePafWidget function: _ZN3paf2ui7TextBox15KillCaretScrollEv
Library: ScePafWidget function: _ZN3paf2ui7TextBox14KillCaretBlinkEv
Library: ScePafWidget function: _ZN3paf2ui7TextBox11ChangeStateEji
Library: ScePafWidget function: _ZN3paf2ui7TextBox6UpdateEv
Library: ScePafWidget function: _ZN3paf2ui7TextBox10UpdateSizeEv
Library: ScePafWidget function: _ZN3paf2ui7TextBox9SetStringERKNS_12basic_stringIwNS_11char_traitsIwEENS_9allocatorIwEEEEi
Library: ScePafWidget function: _ZN3paf2ui7TextBox11MoveCaretUpEv
Library: ScePafWidget function: _ZN3paf2ui7TextBox13MoveCaretDownEv
Library: ScePafWidget function: _ZN3paf2ui7TextBox13MoveCaretLeftEv
Library: ScePafWidget function: _ZN3paf2ui7TextBox14MoveCaretRightEv
Library: ScePafWidget function: _ZN3paf2ui7TextBox11SetCaretPosERKNS_4math2v2E
Library: ScePafWidget function: _ZN3paf2ui7TextBox13SetCaretIndexEj
Library: ScePafWidget function: _ZN3paf2ui7TextBox15SetCaretVisibleEb
Library: ScePafWidget function: _ZN3paf2ui7TextBox16DetachHScrollBarEv
Library: ScePafWidget function: _ZN3paf2ui7TextBox16AttachHScrollBarEPNS0_9ScrollBarE
Library: ScePafWidget function: _ZN3paf2ui7TextBox16DetachVScrollBarEv
Library: ScePafWidget function: _ZN3paf2ui7TextBox16AttachVScrollBarEPNS0_9ScrollBarE
Library: ScePafWidget function: _ZN3paf2ui7TextBox12SetMaxLengthEj
Library: ScePafWidget function: _ZN3paf2ui7TextBoxC1EPNS0_6WidgetEPNS2_11CreateParamE
Library: ScePafWidget function: _ZNK3paf2ui7TextBox9IsInheritEPKc
Library: ScePafWidget function: _ZN3paf2ui7TextBox12GetMaxLengthERj
Library: ScePafWidget function: _ZN3paf2ui7TextBox15SetPasswordModeEb
Library: ScePafWidget function: _ZN3paf2ui7TextBox15GetPasswordModeERb
Library: ScePafWidget function: _ZN3paf2ui7TextBox11SetEditModeEb
Library: ScePafWidget function: _ZN3paf2ui7TextBox11GetEditModeERb
Library: ScePafWidget function: _ZN3paf2ui7TextBox25SetEditAutoTransitionModeEb
Library: ScePafWidget function: _ZN3paf2ui7TextBox25GetEditAutoTransitionModeERb
Library: ScePafWidget function: _ZN3paf2ui7TextBox15SetEditListenerEPNS0_19TextBoxEditListenerE
Library: ScePafWidget function: _ZN3paf2ui7TextBox15GetEditListenerERPNS0_19TextBoxEditListenerE
Library: ScePafWidget function: _ZN3paf2ui7TextBox11SetImeParamERKNS1_8ImeParamE
Library: ScePafWidget function: _ZN3paf2ui7TextBox11GetImeParamERNS1_8ImeParamE
Library: ScePafWidget function: _ZN3paf2ui7TextBox9BeginEditEv
Library: ScePafWidget function: _ZN3paf2ui7TextBox9IsEditingEv
Library: ScePafWidget function: _ZN3paf2ui7TextBox16HandleTouchPressEPNS0_5EventE
Library: ScePafWidget function: _ZN3paf2ui7TextBox11UpdateTouchERKNS_4math2v2E
Library: ScePafWidget function: _ZN3paf2ui7TextBox13SetVisiblePosERKNS_4math2v2E
Library: ScePafWidget function: _ZN3paf2ui7TextBox19OnVScrollBarChangedEiPNS0_7HandlerEPNS0_5EventEPv
Library: ScePafWidget function: _ZN3paf2ui7TextBox19OnHScrollBarChangedEiPNS0_7HandlerEPNS0_5EventEPv
Library: ScePafWidget function: _ZN3paf2ui7TextBox10AdjustSizeEv
Library: ScePafWidget function: _ZN3paf2ui7TextBox16OnCaretScrollPosEPNS_5TimerEPNS0_12AnimListenerEPvS6_S6_
Library: ScePafWidget function: _ZN3paf2ui7TextBox18OnCaretBlinkFadeInEPNS_5TimerEPNS0_12AnimListenerEPvS6_S6_
Library: ScePafWidget function: _ZN3paf2ui7TextBox19OnCaretBlinkFadeOutEPNS_5TimerEPNS0_12AnimListenerEPvS6_S6_

Library: ScePafWidget function: _ZN3paf2ui12TextBoxParamC1Ev
Library: ScePafWidget function: _ZNK3paf2ui12TextBoxParam12GetParamNameEv
Library: ScePafWidget function: _ZN3paf2ui12TextBoxParam9ParamNameEv
Library: ScePafWidget function: _ZN3paf2ui12TextBoxParamC2Ev
Library: ScePafWidget function: _ZN3paf2ui12TextBoxParamD1Ev
Library: ScePafWidget function: _ZN3paf2ui12TextBoxParamD0Ev
Library: ScePafWidget function: _ZN3paf2ui12TextBoxParamD2Ev
Library: ScePafWidget function: _ZN3paf2ui12TextBoxParam6CreateEi
Library: ScePafWidget function: _ZN3paf2ui12TextBoxParam3SetEv
Library: ScePafWidget function: _ZN3paf2ui12TextBoxParam3GetEv

Library: ScePafWidget function: _ZN3paf2ui19TextBoxEditListenerC1Ev
Library: ScePafWidget function: _ZN3paf2ui19TextBoxEditListenerC2Ev
Library: ScePafWidget function: _ZN3paf2ui19TextBoxEditListenerD1Ev
Library: ScePafWidget function: _ZN3paf2ui19TextBoxEditListenerD0Ev
Library: ScePafWidget function: _ZN3paf2ui19TextBoxEditListenerD2Ev

Library: ScePafWidget function: _ZN3paf2ui8ListView11OnCellMovedEiii
Library: ScePafWidget function: _ZN3paf2ui8ListView15OnCellDragStartEii
Library: ScePafWidget function: _ZN3paf2ui8ListView14OnCellDragStopEii
Library: ScePafWidget function: _ZNK3paf2ui8ListView9IsInheritEPKc
Library: ScePafWidget function: _ZNK3paf2ui8ListView11GetTypeNameEv
Library: ScePafWidget function: _ZN3paf2ui8ListView8TypeNameEv
Library: ScePafWidget function: _ZN3paf2ui8ListView16GetGenerateRangeERKNS_4math2v2E
Library: ScePafWidget function: _ZN3paf2ui8ListView21GetCoordinateEffectorEv
Library: ScePafWidget function: _ZN3paf2ui8ListView12SyncViewSizeEv
Library: ScePafWidget function: _ZN3paf2ui8ListView4SyncEv
Library: ScePafWidget function: _ZN3paf2ui8ListView7RebuildEv
Library: ScePafWidget function: _ZN3paf2ui8ListViewC1EPNS0_6WidgetEPNS2_11CreateParamE
Library: ScePafWidget function: _ZN3paf2ui8ListView16SetSegmentHeaderEiPNS0_6WidgetEbb
Library: ScePafWidget function: _ZN3paf2ui8ListView16GetSegmentHeaderEi
Library: ScePafWidget function: _ZN3paf2ui8ListView14SetItemFactoryEPNS0_8listview11ItemFactoryE
Library: ScePafWidget function: _ZN3paf2ui8ListView11GetListItemEii
Library: ScePafWidget function: _ZN3paf2ui8ListView15GetGeneratedNumEv
Library: ScePafWidget function: _ZN3paf2ui8ListView15GetGeneratedPosEi
Library: ScePafWidget function: _ZN3paf2ui8ListView22GetSegmentPropertyListEi
Library: ScePafWidget function: _ZN3paf2ui8ListView9BlockSyncEv
Library: ScePafWidget function: _ZN3paf2ui8ListView11UnblockSyncEv
Library: ScePafWidget function: _ZN3paf2ui8ListView5ClearEv
Library: ScePafWidget function: _ZN3paf2ui8ListView9BeginDragEiii
Library: ScePafWidget function: _ZN3paf2ui8ListView7EndDragEi
Library: ScePafWidget function: _ZN3paf2ui8ListView8SetFocusEiiNS1_14FocusAlignTypeEPNS_5TimerE
Library: ScePafWidget function: _ZN3paf2ui8ListViewC2EPNS0_6WidgetEPNS2_11CreateParamE
Library: ScePafWidget function: _ZN3paf2ui8ListView13DestroyWidgetEv
Library: ScePafWidget function: _ZN3paf2ui8ListView10UpdateSizeEv
Library: ScePafWidget function: _ZN3paf2ui8ListView20OnPartsLayoutUpdatedEb
Library: ScePafWidget function: _ZN3paf2ui8ListViewD1Ev
Library: ScePafWidget function: _ZN3paf2ui8ListViewD0Ev
Library: ScePafWidget function: _ZN3paf2ui8ListViewD2Ev
Library: ScePafWidget function: _ZN3paf2ui8ListView17GetFocusedViewPosEv
Library: ScePafWidget function: _ZN3paf2ui8ListView9FocusRectERKNS_4math2v4EPNS_5TimerE
Library: ScePafWidget function: _ZN3paf2ui8ListView12OnCellUnGrabEPNS0_8listview4CellE
Library: ScePafWidget function: _ZN3paf2ui8ListView14OnCellDragMoveEPNS0_8listview4CellE
Library: ScePafWidget function: _ZN3paf2ui8ListView13SetScrollTypeENS1_10ScrollTypeE
Library: ScePafWidget function: _ZN3paf2ui8ListView17SetGenerateMarginERKNS_4math2v2E
Library: ScePafWidget function: _ZN3paf2ui8ListView10InsertCellEiij
Library: ScePafWidget function: _ZN3paf2ui8ListView10DeleteCellEiij
Library: ScePafWidget function: _ZN3paf2ui8ListView8MoveCellEiii
Library: ScePafWidget function: _ZN3paf2ui8ListView10GetCellNumEi
Library: ScePafWidget function: _ZN3paf2ui8ListView13InsertSegmentEij
Library: ScePafWidget function: _ZN3paf2ui8ListView13DeleteSegmentEij
Library: ScePafWidget function: _ZN3paf2ui8ListView13GetSegmentNumEv
Library: ScePafWidget function: _ZN3paf2ui8ListView18SetCellSizeDefaultEiRKNS_4math2v4E
Library: ScePafWidget function: _ZN3paf2ui8ListView18GetCellSizeDefaultEi
Library: ScePafWidget function: _ZN3paf2ui8ListView11SetCellSizeEiiRKNS_4math2v4E
Library: ScePafWidget function: _ZN3paf2ui8ListView11GetCellSizeEii
Library: ScePafWidget function: _ZN3paf2ui8ListView16FreeCellPositionEiib
Library: ScePafWidget function: _ZN3paf2ui8ListView20SetSegmentLayoutTypeEiNS1_10LayoutTypeE
Library: ScePafWidget function: _ZN3paf2ui8ListView20GetSegmentLayoutTypeEi

Library: ScePafWidget function: _ZN3paf2ui8listview7SegmentC2EPNS1_11SegmentListEi
Library: ScePafWidget function: _ZN3paf2ui8listview7SegmentD2Ev
Library: ScePafWidget function: _ZN3paf2ui8listview7Segment12SetHeaderPosEfRKNS1_18CoordinateEffectorE
Library: ScePafWidget function: _ZN3paf2ui8listview7Segment13GetHeaderSizeEv
Library: ScePafWidget function: _ZN3paf2ui8listview7Segment16SetHeaderVisibleEb
Library: ScePafWidget function: _ZN3paf2ui8listview7Segment19ResetHeaderPositionERKNS_4math2v2ERKNS1_18CoordinateEffectorE
Library: ScePafWidget function: _ZN3paf2ui8listview7Segment17ResetCellPositionERKNS1_18CoordinateEffectorE
Library: ScePafWidget function: _ZN3paf2ui8listview7Segment12GenerateCellEii
Library: ScePafWidget function: _ZN3paf2ui8listview7Segment18GetGenerationIndexERiS3_RKNS_4math2v2E
Library: ScePafWidget function: _ZN3paf2ui8listview7Segment4SyncERKNS1_9SyncParamE
Library: ScePafWidget function: _ZN3paf2ui8listview7Segment11GetCellSizeEi
Library: ScePafWidget function: _ZN3paf2ui8listview7Segment14UpdateViewSizeEv
Library: ScePafWidget function: _ZN3paf2ui8listview7Segment11DestroyCellEij
Library: ScePafWidget function: _ZN3paf2ui8listview7SegmentD1Ev
Library: ScePafWidget function: _ZN3paf2ui8listview7Segment12GetCellIndexERKNS_4math2v2E
Library: ScePafWidget function: _ZN3paf2ui8listview7Segment12GetDropIndexERKNS_4math2v2E
Library: ScePafWidget function: _ZN3paf2ui8listview7Segment10InsertCellEij
Library: ScePafWidget function: _ZN3paf2ui8listview7Segment10DeleteCellEij
Library: ScePafWidget function: _ZN3paf2ui8listview7Segment8MoveCellEiRi
Library: ScePafWidget function: _ZN3paf2ui8listview7SegmentC1EPNS1_11SegmentListEi
Library: ScePafWidget function: _ZN3paf2ui8listview7Segment11SetCellSizeEiRKNS_4math2v4E
Library: ScePafWidget function: _ZN3paf2ui8listview7Segment13SetLayoutTypeENS0_8ListView10LayoutTypeE

Library: ScePafWidget function: _ZN3paf2ui8listview11ItemFactoryD1Ev
Library: ScePafWidget function: _ZN3paf2ui8listview11ItemFactoryD2Ev
Library: ScePafWidget function: _ZN3paf2ui8listview11ItemFactoryD0Ev
Library: ScePafWidget function: _ZN3paf2ui8listview11ItemFactory6CreateERNS2_11CreateParamE
Library: ScePafWidget function: _ZN3paf2ui8listview11ItemFactory5StartERNS2_10StartParamE
Library: ScePafWidget function: _ZN3paf2ui8listview11ItemFactory4StopERNS2_9StopParamE
Library: ScePafWidget function: _ZN3paf2ui8listview11ItemFactory7DisposeERNS2_12DisposeParamE

Library: ScePafWidget function: _ZN3paf2ui8listview7CellMapC2EPNS0_8ListViewE
Library: ScePafWidget function: _ZN3paf2ui8listview7CellMap4FindEPNS0_8ListItemE
Library: ScePafWidget function: _ZN3paf2ui8listview7CellMap4FindEPNS1_4CellE
Library: ScePafWidget function: _ZN3paf2ui8listview7CellMap5EraseEPNS1_4CellE
Library: ScePafWidget function: _ZN3paf2ui8listview7CellMap6InsertEPNS1_4CellE
Library: ScePafWidget function: _ZN3paf2ui8listview7CellMapC1EPNS0_8ListViewE
Library: ScePafWidget function: _ZN3paf2ui8listview7CellMap10LowerBoundEPNS1_4CellE
Library: ScePafWidget function: _ZN3paf2ui8listview7CellMap4SortEv
Library: ScePafWidget function: _ZN3paf2ui8listview7CellMap4FindEii

Library: ScePafWidget function: _ZN3paf2ui8listview4CellC2EPNS1_8CellListEi
Library: ScePafWidget function: _ZN3paf2ui8listview4CellD2Ev
Library: ScePafWidget function: _ZN3paf2ui8listview4Cell7EndDragEi
Library: ScePafWidget function: _ZN3paf2ui8listview4CellD1Ev
Library: ScePafWidget function: _ZN3paf2ui8listview4CellC1EPNS1_8CellListEi
Library: ScePafWidget function: _ZNK3paf2ui8listview4Cell10GetSegmentEv
Library: ScePafWidget function: _ZN3paf2ui8listview4Cell15UpdateDragRangeEv
Library: ScePafWidget function: _ZNK3paf2ui8listview4Cell15GetSegmentIndexEv
Library: ScePafWidget function: _ZN3paf2ui8listview4Cell8ResetPosEb
Library: ScePafWidget function: _ZN3paf2ui8listview4Cell11GetListViewEv
Library: ScePafWidget function: _ZN3paf2ui8listview4Cell6SetPosERKNS_4math2v2Eb
Library: ScePafWidget function: _ZN3paf2ui8listview4Cell6GetPosEb
Library: ScePafWidget function: _ZN3paf2ui8listview4Cell9BeginDragEi
Library: ScePafWidget function: _ZN3paf2ui8listview4Cell7GetRectEb
Library: ScePafWidget function: _ZN3paf2ui8listview4Cell16FreeCellPositionEb

Library: ScePafWidget function: _ZN3paf2ui8listview8CellListC2EPNS1_7SegmentE
Library: ScePafWidget function: _ZN3paf2ui8listview8CellList10LowerBoundEi
Library: ScePafWidget function: _ZN3paf2ui8listview8CellList10CreateCellEi
Library: ScePafWidget function: _ZN3paf2ui8listview8CellList7GetLastEv
Library: ScePafWidget function: _ZN3paf2ui8listview8CellList4SortEv
Library: ScePafWidget function: _ZN3paf2ui8listview8CellList4FindEi
Library: ScePafWidget function: _ZN3paf2ui8listview8CellList7GetCellEi
Library: ScePafWidget function: _ZN3paf2ui8listview8CellListC1EPNS1_7SegmentE

Library: ScePafWidget function: _ZN3paf2ui8listview11SegmentListC2EPNS0_8ListViewE
Library: ScePafWidget function: _ZN3paf2ui8listview11SegmentListC1EPNS0_8ListViewE
Library: ScePafWidget function: _ZN3paf2ui8listview11SegmentList10GetSegmentEi
Library: ScePafWidget function: _ZN3paf2ui8listview11SegmentList13InsertSegmentEij
Library: ScePafWidget function: _ZN3paf2ui8listview11SegmentList13DeleteSegmentEij

Library: ScePafWidget function: _ZN3paf2ui8listview12CellSizeList10LowerBoundEf
Library: ScePafWidget function: _ZN3paf2ui8listview12CellSizeList4FindEf

Library: ScePafWidget function: _ZNK3paf2ui13ListViewParam12GetParamNameEv
Library: ScePafWidget function: _ZN3paf2ui13ListViewParam9ParamNameEv

Library: ScePafWidget function: _ZNK3paf2ui18ListViewStyleParam12GetParamNameEv
Library: ScePafWidget function: _ZN3paf2ui18ListViewStyleParam9ParamNameEv

Library: ScePafWidget function: _ZN3paf2ui11ScrollBar2d14GetPartsWidgetEiPi
Library: ScePafWidget function: _ZN3paf2ui11ScrollBar2d13SetColor_coreERKNS_4math2v4E
Library: ScePafWidget function: _ZN3paf2ui11ScrollBar2d12UpdateSliderEb
Library: ScePafWidget function: _ZN3paf2ui11ScrollBar2d7OnTouchEPNS0_5EventE
Library: ScePafWidget function: _ZN3paf2ui11ScrollBar2d17OnDragSliderEventEiPNS0_7HandlerEPNS0_5EventEPv
Library: ScePafWidget function: _ZN3paf2ui11ScrollBar2d17OnDragBeginSliderEPNS0_5EventE
Library: ScePafWidget function: _ZN3paf2ui11ScrollBar2d16OnDragMoveSliderEPNS0_5EventE
Library: ScePafWidget function: _ZN3paf2ui11ScrollBar2d15OnDragEndSliderEPNS0_5EventEb
Library: ScePafWidget function: _ZN3paf2ui11ScrollBar2d12OnDragSliderEv
Library: ScePafWidget function: _ZN3paf2ui11ScrollBar2dC1EPNS0_6WidgetEPNS2_11CreateParamE
Library: ScePafWidget function: _ZNK3paf2ui11ScrollBar2d9IsInheritEPKc
Library: ScePafWidget function: _ZNK3paf2ui11ScrollBar2d11GetTypeNameEv
Library: ScePafWidget function: _ZN3paf2ui11ScrollBar2d8TypeNameEv
Library: ScePafWidget function: _ZN3paf2ui11ScrollBar2dC2EPNS0_6WidgetEPNS2_11CreateParamE
Library: ScePafWidget function: _ZN3paf2ui11ScrollBar2dD1Ev
Library: ScePafWidget function: _ZN3paf2ui11ScrollBar2dD0Ev
Library: ScePafWidget function: _ZN3paf2ui11ScrollBar2dD2Ev
Library: ScePafWidget function: _ZN3paf2ui11ScrollBar2d10GetDrawObjEi
Library: ScePafWidget function: _ZN3paf2ui11ScrollBar2d11SetObjColorERKNS_4math2v4Ei
Library: ScePafWidget function: _ZN3paf2ui11ScrollBar2d11GetObjColorERNS_4math2v4Ei
Library: ScePafWidget function: _ZN3paf2ui11ScrollBar2d15AdjustParameterEb
Library: ScePafWidget function: _ZN3paf2ui11ScrollBar2d11SetMaxValueERKNS_4math2v2E
Library: ScePafWidget function: _ZN3paf2ui11ScrollBar2d16SetVisibleAmountERKNS_4math2v2E
Library: ScePafWidget function: _ZN3paf2ui11ScrollBar2d8SetValueERKNS_4math2v2Eb
Library: ScePafWidget function: _ZN3paf2ui11ScrollBar2d13SetSliderAnimEfi
Library: ScePafWidget function: _ZN3paf2ui11ScrollBar2d10SetTextureERKNS_13intrusive_ptrINS_5graph7SurfaceEEEij
Library: ScePafWidget function: _ZN3paf2ui11ScrollBar2d10CheckStateEv
Library: ScePafWidget function: _ZN3paf2ui11ScrollBar2d10UpdateSizeEv
Library: ScePafWidget function: _ZN3paf2ui11ScrollBar2d16HandlePointEventEPNS0_5EventE
Library: ScePafWidget function: _ZN3paf2ui11ScrollBar2d16HandleTouchEventEPNS0_5EventE

Library: ScePafWidget function: _ZNK3paf2ui16ScrollBar2dParam12GetParamNameEv
Library: ScePafWidget function: _ZN3paf2ui16ScrollBar2dParam9ParamNameEv
Library: ScePafWidget function: _ZN3paf2ui16ScrollBar2dParamC2Ev
Library: ScePafWidget function: _ZN3paf2ui16ScrollBar2dParamC1Ev

Library: ScePafWidget function: _ZNK3paf2ui21ScrollBar2dStyleParam12GetParamNameEv
Library: ScePafWidget function: _ZN3paf2ui21ScrollBar2dStyleParam9ParamNameEv
Library: ScePafWidget function: _ZN3paf2ui21ScrollBar2dStyleParamC2Ev
Library: ScePafWidget function: _ZN3paf2ui21ScrollBar2dStyleParam6CreateEi
Library: ScePafWidget function: _ZN3paf2ui21ScrollBar2dStyleParam7SetEachEPNS0_6WidgetE
Library: ScePafWidget function: _ZN3paf2ui21ScrollBar2dStyleParam7GetEachEPNS0_6WidgetE
Library: ScePafWidget function: _ZN3paf2ui21ScrollBar2dStyleParamC1Ev

Library: ScePafWidget function: _ZN3paf2ui14ScrollBarTouchC1EPNS0_6WidgetEPNS2_11CreateParamE
Library: ScePafWidget function: _ZNK3paf2ui14ScrollBarTouch9IsInheritEPKc
Library: ScePafWidget function: _ZNK3paf2ui14ScrollBarTouch11GetTypeNameEv
Library: ScePafWidget function: _ZN3paf2ui14ScrollBarTouch8TypeNameEv
Library: ScePafWidget function: _ZN3paf2ui14ScrollBarTouchC2EPNS0_6WidgetEPNS2_11CreateParamE
Library: ScePafWidget function: _ZN3paf2ui14ScrollBarTouchD1Ev
Library: ScePafWidget function: _ZN3paf2ui14ScrollBarTouchD0Ev
Library: ScePafWidget function: _ZN3paf2ui14ScrollBarTouchD2Ev
Library: ScePafWidget function: _ZN3paf2ui14ScrollBarTouch17SetPageScrollModeENS1_14PageScrollModeE
Library: ScePafWidget function: _ZN3paf2ui14ScrollBarTouch16HandlePointEventEPNS0_5EventE
Library: ScePafWidget function: _ZN3paf2ui14ScrollBarTouch16HandleTouchEventEPNS0_5EventE
Library: ScePafWidget function: _ZN3paf2ui14ScrollBarTouch12UpdateSliderEb
Library: ScePafWidget function: _ZN3paf2ui14ScrollBarTouch10PageScrollEv
Library: ScePafWidget function: _ZN3paf2ui14ScrollBarTouch7OnTouchEPNS0_5EventE
Library: ScePafWidget function: _ZN3paf2ui14ScrollBarTouch17OnDragSliderEventEiPNS0_7HandlerEPNS0_5EventEPv
Library: ScePafWidget function: _ZN3paf2ui14ScrollBarTouch17OnDragBeginSliderEPNS0_5EventE
Library: ScePafWidget function: _ZN3paf2ui14ScrollBarTouch16OnDragMoveSliderEPNS0_5EventE
Library: ScePafWidget function: _ZN3paf2ui14ScrollBarTouch15OnDragEndSliderEPNS0_5EventEb
Library: ScePafWidget function: _ZN3paf2ui14ScrollBarTouch12OnDragSliderEv

Library: ScePafWidget function: _ZN3paf2ui19ScrollBarTouchParamC1Ev
Library: ScePafWidget function: _ZNK3paf2ui19ScrollBarTouchParam12GetParamNameEv
Library: ScePafWidget function: _ZN3paf2ui19ScrollBarTouchParam9ParamNameEv
Library: ScePafWidget function: _ZN3paf2ui19ScrollBarTouchParamC2Ev
Library: ScePafWidget function: _ZN3paf2ui19ScrollBarTouchParam6CreateEi
Library: ScePafWidget function: _ZN3paf2ui19ScrollBarTouchParam3SetEv
Library: ScePafWidget function: _ZN3paf2ui19ScrollBarTouchParam3GetEv

Library: ScePafWidget function: _ZN3paf2ui9ScrollBarC1EPNS0_6WidgetEPNS2_11CreateParamE
Library: ScePafWidget function: _ZNK3paf2ui9ScrollBar9IsInheritEPKc
Library: ScePafWidget function: _ZNK3paf2ui9ScrollBar11GetTypeNameEv
Library: ScePafWidget function: _ZN3paf2ui9ScrollBar8TypeNameEv
Library: ScePafWidget function: _ZN3paf2ui9ScrollBarC2EPNS0_6WidgetEPNS2_11CreateParamE
Library: ScePafWidget function: _ZN3paf2ui9ScrollBarD1Ev
Library: ScePafWidget function: _ZN3paf2ui9ScrollBarD0Ev
Library: ScePafWidget function: _ZN3paf2ui9ScrollBarD2Ev
Library: ScePafWidget function: _ZN3paf2ui9ScrollBar10GetDrawObjEi
Library: ScePafWidget function: _ZN3paf2ui9ScrollBar11SetObjColorERKNS_4math2v4Ei
Library: ScePafWidget function: _ZN3paf2ui9ScrollBar11GetObjColorERNS_4math2v4Ei
Library: ScePafWidget function: _ZN3paf2ui9ScrollBar13SetScrollTypeENS1_10ScrollTypeE
Library: ScePafWidget function: _ZN3paf2ui9ScrollBar13SetSliderSizeERKNS_4math2v4E
Library: ScePafWidget function: _ZN3paf2ui9ScrollBar16SetSliderMinSizeEf
Library: ScePafWidget function: _ZN3paf2ui9ScrollBar15AdjustParameterEb
Library: ScePafWidget function: _ZN3paf2ui9ScrollBar11SetMaxValueEf
Library: ScePafWidget function: _ZN3paf2ui9ScrollBar16SetVisibleAmountEf
Library: ScePafWidget function: _ZN3paf2ui9ScrollBar8SetValueEfb
Library: ScePafWidget function: _ZN3paf2ui9ScrollBar13SetSliderAnimEfi
Library: ScePafWidget function: _ZN3paf2ui9ScrollBar10SetTextureERKNS_13intrusive_ptrINS_5graph7SurfaceEEEij
Library: ScePafWidget function: _ZN3paf2ui9ScrollBar10CheckStateEv
Library: ScePafWidget function: _ZN3paf2ui9ScrollBar10UpdateSizeEv
Library: ScePafWidget function: _ZN3paf2ui9ScrollBar14GetPartsWidgetEiPi
Library: ScePafWidget function: _ZN3paf2ui9ScrollBar13SetColor_coreERKNS_4math2v4E
Library: ScePafWidget function: _ZN3paf2ui9ScrollBar16AdjustSliderSizeEv
Library: ScePafWidget function: _ZN3paf2ui9ScrollBar12UpdateSliderEb

Library: ScePafWidget function: _ZN3paf2ui14ScrollBarParam3SetEv
Library: ScePafWidget function: _ZN3paf2ui14ScrollBarParam3GetEv
Library: ScePafWidget function: _ZN3paf2ui14ScrollBarParamC1Ev
Library: ScePafWidget function: _ZNK3paf2ui14ScrollBarParam12GetParamNameEv
Library: ScePafWidget function: _ZN3paf2ui14ScrollBarParam9ParamNameEv
Library: ScePafWidget function: _ZN3paf2ui14ScrollBarParamC2Ev
Library: ScePafWidget function: _ZN3paf2ui14ScrollBarParam6CreateEi

Library: ScePafWidget function: _ZNK3paf2ui19ScrollBarStyleParam12GetParamNameEv
Library: ScePafWidget function: _ZN3paf2ui19ScrollBarStyleParam9ParamNameEv
Library: ScePafWidget function: _ZN3paf2ui19ScrollBarStyleParamC2Ev
Library: ScePafWidget function: _ZN3paf2ui19ScrollBarStyleParam6CreateEi
Library: ScePafWidget function: _ZN3paf2ui19ScrollBarStyleParam7SetEachEPNS0_6WidgetE
Library: ScePafWidget function: _ZN3paf2ui19ScrollBarStyleParam7GetEachEPNS0_6WidgetE
Library: ScePafWidget function: _ZN3paf2ui19ScrollBarStyleParamC1Ev

Library: ScePafWidget function: _ZN3paf2ui13SlidingDrawer20OnPartsLayoutUpdatedEb
Library: ScePafWidget function: _ZN3paf2ui13SlidingDrawerD1Ev
Library: ScePafWidget function: _ZN3paf2ui13SlidingDrawerD0Ev
Library: ScePafWidget function: _ZN3paf2ui13SlidingDrawerD2Ev
Library: ScePafWidget function: _ZN3paf2ui13SlidingDrawer19UpdateAfterChildrenEv
Library: ScePafWidget function: _ZN3paf2ui13SlidingDrawer10SetViewBoxERKNS_4math2v4E
Library: ScePafWidget function: _ZN3paf2ui13SlidingDrawer13UpdateViewBoxEv
Library: ScePafWidget function: _ZN3paf2ui13SlidingDrawer22UpdateMovableDirectionEv
Library: ScePafWidget function: _ZN3paf2ui13SlidingDrawerC1EPNS0_6WidgetEPNS2_11CreateParamE
Library: ScePafWidget function: _ZNK3paf2ui13SlidingDrawer9IsInheritEPKc
Library: ScePafWidget function: _ZNK3paf2ui13SlidingDrawer11GetTypeNameEv
Library: ScePafWidget function: _ZN3paf2ui13SlidingDrawer8TypeNameEv
Library: ScePafWidget function: _ZN3paf2ui13SlidingDrawer12AddSnapPointERKNS0_19ScrollViewSnapPointE
Library: ScePafWidget function: _ZN3paf2ui13SlidingDrawer12AddSnapPointEPNS0_6WidgetENS1_15SNAP_ALIGN_TYPEERKNS_4math2v2E
Library: ScePafWidget function: _ZN3paf2ui13SlidingDrawer12AddSnapPointERKNS_7IDParamENS1_15SNAP_ALIGN_TYPEERKNS_4math2v2E
Library: ScePafWidget function: _ZN3paf2ui13SlidingDrawer15DelAllSnapPointEv
Library: ScePafWidget function: _ZN3paf2ui13SlidingDrawer12SetViewFocusEPNS0_6WidgetENS1_15SNAP_ALIGN_TYPEERKNS_4math2v2EPNS_5TimerE
Library: ScePafWidget function: _ZN3paf2ui13SlidingDrawer12SetViewFocusERKNS_7IDParamENS1_15SNAP_ALIGN_TYPEERKNS_4math2v2EPNS_5TimerE
Library: ScePafWidget function: _ZN3paf2ui13SlidingDrawer12GetViewFocusEi
Library: ScePafWidget function: _ZN3paf2ui13SlidingDrawer19SetMovableDirectionEj
Library: ScePafWidget function: _ZN3paf2ui13SlidingDrawer19GetMovableDirectionEv
Library: ScePafWidget function: _ZN3paf2ui13SlidingDrawerC2EPNS0_6WidgetEPNS2_11CreateParamE
Library: ScePafWidget function: _ZN3paf2ui13SlidingDrawer17CheckMovableRangeEv
Library: ScePafWidget function: _ZN3paf2ui13SlidingDrawer16HandleTouchEventEPNS0_5EventE
Library: ScePafWidget function: _ZN3paf2ui13SlidingDrawer19OnViewLayoutUpdatedEb

Library: ScePafWidget function: _ZNK3paf2ui18SlidingDrawerParam12GetParamNameEv
Library: ScePafWidget function: _ZN3paf2ui18SlidingDrawerParam9ParamNameEv
Library: ScePafWidget function: _ZN3paf2ui18SlidingDrawerParamC2Ev
Library: ScePafWidget function: _ZN3paf2ui18SlidingDrawerParam6CreateEi
Library: ScePafWidget function: _ZN3paf2ui18SlidingDrawerParam3SetEv
Library: ScePafWidget function: _ZN3paf2ui18SlidingDrawerParam3GetEv
Library: ScePafWidget function: _ZN3paf2ui18SlidingDrawerParamC1Ev

Library: ScePafWidget function: _ZNK3paf2ui23SlidingDrawerStyleParam12GetParamNameEv
Library: ScePafWidget function: _ZN3paf2ui23SlidingDrawerStyleParam9ParamNameEv
Library: ScePafWidget function: _ZN3paf2ui23SlidingDrawerStyleParamC2Ev
Library: ScePafWidget function: _ZN3paf2ui23SlidingDrawerStyleParamC1Ev

Library: ScePafWidget function: _ZNK3paf2ui24SlidingDrawerLayoutParam12GetParamNameEv
Library: ScePafWidget function: _ZN3paf2ui24SlidingDrawerLayoutParam9ParamNameEv
Library: ScePafWidget function: _ZN3paf2ui24SlidingDrawerLayoutParamC2Ev
Library: ScePafWidget function: _ZN3paf2ui24SlidingDrawerLayoutParamC1Ev

Library: ScePafWidget function: _ZNK3paf2ui25SlidingDrawerHandlerParam12GetParamNameEv
Library: ScePafWidget function: _ZN3paf2ui25SlidingDrawerHandlerParam9ParamNameEv
Library: ScePafWidget function: _ZN3paf2ui25SlidingDrawerHandlerParamC2Ev
Library: ScePafWidget function: _ZN3paf2ui25SlidingDrawerHandlerParamC1Ev

Library: ScePafWidget function: _ZN3paf2ui13ImageSlideBar10SetTextureERKNS_13intrusive_ptrINS_5graph7SurfaceEEEij
Library: ScePafWidget function: _ZN3paf2ui13ImageSlideBar10CheckStateEv
Library: ScePafWidget function: _ZN3paf2ui13ImageSlideBar10UpdateSizeEv
Library: ScePafWidget function: _ZN3paf2ui13ImageSlideBar16HandlePointEventEPNS0_5EventE
Library: ScePafWidget function: _ZN3paf2ui13ImageSlideBar16HandleTouchEventEPNS0_5EventE
Library: ScePafWidget function: _ZN3paf2ui13ImageSlideBar18HandleKeycodeEventEPNS0_5EventE
Library: ScePafWidget function: _ZN3paf2ui13ImageSlideBar15AdjustParameterEv
Library: ScePafWidget function: _ZN3paf2ui13ImageSlideBar12SetTexRegionEiRKNS_4math2v4EPNS_5TimerEi
Library: ScePafWidget function: _ZN3paf2ui13ImageSlideBar10UpdateBaseEv
Library: ScePafWidget function: _ZN3paf2ui13ImageSlideBar9UpdateBarEb
Library: ScePafWidget function: _ZN3paf2ui13ImageSlideBar7OnTouchEPNS0_5EventE
Library: ScePafWidget function: _ZN3paf2ui13ImageSlideBar18OnTouchUpdateValueEv
Library: ScePafWidget function: _ZN3paf2ui13ImageSlideBar9OnDragEndEb
Library: ScePafWidget function: _ZN3paf2ui13ImageSlideBarC1EPNS0_6WidgetEPNS2_11CreateParamE
Library: ScePafWidget function: _ZNK3paf2ui13ImageSlideBar9IsInheritEPKc
Library: ScePafWidget function: _ZNK3paf2ui13ImageSlideBar11GetTypeNameEv
Library: ScePafWidget function: _ZN3paf2ui13ImageSlideBar8TypeNameEv
Library: ScePafWidget function: _ZN3paf2ui13ImageSlideBarC2EPNS0_6WidgetEPNS2_11CreateParamE
Library: ScePafWidget function: _ZN3paf2ui13ImageSlideBarD1Ev
Library: ScePafWidget function: _ZN3paf2ui13ImageSlideBarD0Ev
Library: ScePafWidget function: _ZN3paf2ui13ImageSlideBarD2Ev
Library: ScePafWidget function: _ZN3paf2ui13ImageSlideBar11SetObjColorERKNS_4math2v4Ei
Library: ScePafWidget function: _ZN3paf2ui13ImageSlideBar11GetObjColorERNS_4math2v4Ei
Library: ScePafWidget function: _ZN3paf2ui13ImageSlideBar11SetBaseModeENS1_8BaseModeE
Library: ScePafWidget function: _ZN3paf2ui13ImageSlideBar14SetTextureModeENS1_11TextureModeE
Library: ScePafWidget function: _ZN3paf2ui13ImageSlideBar11SetMaxValueEi
Library: ScePafWidget function: _ZN3paf2ui13ImageSlideBar8SetValueEib
Library: ScePafWidget function: _ZN3paf2ui13ImageSlideBar10SetBarAnimEfi

Library: ScePafWidget function: _ZNK3paf2ui18ImageSlideBarParam12GetParamNameEv
Library: ScePafWidget function: _ZN3paf2ui18ImageSlideBarParam9ParamNameEv
Library: ScePafWidget function: _ZN3paf2ui18ImageSlideBarParamC2Ev
Library: ScePafWidget function: _ZN3paf2ui18ImageSlideBarParam6CreateEi
Library: ScePafWidget function: _ZN3paf2ui18ImageSlideBarParam3SetEv
Library: ScePafWidget function: _ZN3paf2ui18ImageSlideBarParam3GetEv
Library: ScePafWidget function: _ZN3paf2ui18ImageSlideBarParamC1Ev

Library: ScePafWidget function: _ZNK3paf2ui23ImageSlideBarStyleParam12GetParamNameEv
Library: ScePafWidget function: _ZN3paf2ui23ImageSlideBarStyleParam9ParamNameEv
Library: ScePafWidget function: _ZN3paf2ui23ImageSlideBarStyleParamC2Ev
Library: ScePafWidget function: _ZN3paf2ui23ImageSlideBarStyleParam6CreateEi
Library: ScePafWidget function: _ZN3paf2ui23ImageSlideBarStyleParam7SetEachEPNS0_6WidgetE
Library: ScePafWidget function: _ZN3paf2ui23ImageSlideBarStyleParam7GetEachEPNS0_6WidgetE
Library: ScePafWidget function: _ZN3paf2ui23ImageSlideBarStyleParamC1Ev

Library: ScePafWidget function: _ZN3paf2ui8ListItemC1EPNS0_6WidgetEPNS2_11CreateParamE
Library: ScePafWidget function: _ZNK3paf2ui8ListItem9IsInheritEPKc
Library: ScePafWidget function: _ZNK3paf2ui8ListItem11GetTypeNameEv
Library: ScePafWidget function: _ZN3paf2ui8ListItem8TypeNameEv
Library: ScePafWidget function: _ZN3paf2ui8ListItem15GetSegmentIndexEv
Library: ScePafWidget function: _ZN3paf2ui8ListItem12GetCellIndexEv
Library: ScePafWidget function: _ZN3paf2ui8ListItem11GetListViewEv
Library: ScePafWidget function: _ZN3paf2ui8ListItem11GetListItemEPNS0_6WidgetE
Library: ScePafWidget function: _ZN3paf2ui8ListItemC2EPNS0_6WidgetEPNS2_11CreateParamE
Library: ScePafWidget function: _ZN3paf2ui8ListItem10SetTextureERKNS_13intrusive_ptrINS_5graph7SurfaceEEEij
Library: ScePafWidget function: _ZN3paf2ui8ListItem10GetTextureERNS_13intrusive_ptrINS_5graph7SurfaceEEEij
Library: ScePafWidget function: _ZN3paf2ui8ListItem10CheckStateEv
Library: ScePafWidget function: _ZN3paf2ui8ListItem10UpdateSizeEv
Library: ScePafWidget function: _ZN3paf2ui8ListItemD1Ev
Library: ScePafWidget function: _ZN3paf2ui8ListItemD0Ev
Library: ScePafWidget function: _ZN3paf2ui8ListItemD2Ev
Library: ScePafWidget function: _ZN3paf2ui8ListItem9BeginDragEi
Library: ScePafWidget function: _ZN3paf2ui8ListItem7EndDragEi

Library: ScePafWidget function: _ZN3paf2ui18ListItemStyleParamC1Ev
Library: ScePafWidget function: _ZNK3paf2ui18ListItemStyleParam12GetParamNameEv
Library: ScePafWidget function: _ZN3paf2ui18ListItemStyleParam9ParamNameEv
Library: ScePafWidget function: _ZN3paf2ui18ListItemStyleParamC2Ev

Library: ScePafWidget function: _ZN3paf2ui5PlaneC1EPNS0_6WidgetEPNS2_11CreateParamE
Library: ScePafWidget function: _ZNK3paf2ui5Plane9IsInheritEPKc
Library: ScePafWidget function: _ZNK3paf2ui5Plane11GetTypeNameEv
Library: ScePafWidget function: _ZN3paf2ui5Plane8TypeNameEv
Library: ScePafWidget function: _ZN3paf2ui5PlaneC2EPNS0_6WidgetEPNS2_11CreateParamE
Library: ScePafWidget function: _ZN3paf2ui5Plane6UpdateEv
Library: ScePafWidget function: _ZN3paf2ui5Plane10UpdateSizeEv
Library: ScePafWidget function: _ZN3paf2ui5Plane16UpdateAdjustSizeEv
Library: ScePafWidget function: _ZN3paf2ui5Plane10CheckStateEv
Library: ScePafWidget function: _ZN3paf2ui5Plane10SetTextureERKNS_13intrusive_ptrINS_5graph7SurfaceEEEij
Library: ScePafWidget function: _ZN3paf2ui5Plane10GetTextureERNS_13intrusive_ptrINS_5graph7SurfaceEEEij
Library: ScePafWidget function: _ZN3paf2ui5PlaneD1Ev
Library: ScePafWidget function: _ZN3paf2ui5PlaneD0Ev
Library: ScePafWidget function: _ZN3paf2ui5PlaneD2Ev

Library: ScePafWidget function: _ZN3paf2ui15PlaneStyleParamC1Ev
Library: ScePafWidget function: _ZNK3paf2ui15PlaneStyleParam12GetParamNameEv
Library: ScePafWidget function: _ZN3paf2ui15PlaneStyleParam9ParamNameEv
Library: ScePafWidget function: _ZN3paf2ui15PlaneStyleParamC2Ev

Library: ScePafWidget function: _ZN3paf2ui3Box13SetLayoutTypeENS1_10LayoutTypeE
Library: ScePafWidget function: _ZN3paf2ui3BoxC1EPNS0_6WidgetEPNS2_11CreateParamE
Library: ScePafWidget function: _ZNK3paf2ui3Box9IsInheritEPKc
Library: ScePafWidget function: _ZNK3paf2ui3Box11GetTypeNameEv
Library: ScePafWidget function: _ZN3paf2ui3Box8TypeNameEv
Library: ScePafWidget function: _ZN3paf2ui3BoxC2EPNS0_6WidgetEPNS2_11CreateParamE
Library: ScePafWidget function: _ZN3paf2ui3BoxD1Ev
Library: ScePafWidget function: _ZN3paf2ui3BoxD0Ev
Library: ScePafWidget function: _ZN3paf2ui3BoxD2Ev
Library: ScePafWidget function: _ZN3paf2ui3Box11RemoveChildEPNS0_6WidgetE
Library: ScePafWidget function: _ZN3paf2ui3Box13RegisterChildEPNS0_6WidgetES3_
Library: ScePafWidget function: _ZN3paf2ui3Box11calc_offsetEjff
Library: ScePafWidget function: _ZN3paf2ui3Box18calc_origin_offsetERKNS_4math2v4ES5_jjj
Library: ScePafWidget function: _ZN3paf2ui3Box15anchor_to_orignEj
Library: ScePafWidget function: _ZN3paf2ui3Box18calc_anchor_offsetERKNS_4math2v4ES5_jjj
Library: ScePafWidget function: _ZNK3paf2ui3Box10GetFitSizeEjfffff
Library: ScePafWidget function: _ZN3paf2ui3Box15AdjustChildSizeEPNS0_6WidgetERKNS_4math2v4ES7_jjjNS1_14ChildrenAdjustES8_
Library: ScePafWidget function: _ZN3paf2ui3Box26GetNextAdjustChildrenStateEbNS1_19ChildrenAdjustStateENS1_14ChildrenAdjustE
Library: ScePafWidget function: _ZN3paf2ui3Box18AdjustChildrenSizeEb
Library: ScePafWidget function: _ZN3paf2ui3Box19UpdateLayoutSizePreEb
Library: ScePafWidget function: _ZN3paf2ui3Box6UpdateEv
Library: ScePafWidget function: _ZN3paf2ui3Box19UpdateAfterChildrenEv
Library: ScePafWidget function: _ZN3paf2ui3Box10CheckStateEv
Library: ScePafWidget function: _ZN3paf2ui3Box11ChangeStateEji
Library: ScePafWidget function: _ZN3paf2ui3Box10UpdateSizeEv
Library: ScePafWidget function: _ZN3paf2ui3Box16UpdateAdjustSizeEv
Library: ScePafWidget function: _ZN3paf2ui3Box21UpdateAdjustChildSizeEPNS0_6WidgetE
Library: ScePafWidget function: _ZN3paf2ui3Box15GetChildrenInfoEv
Library: ScePafWidget function: _ZN3paf2ui3Box20UpdateLayoutSizePostERKNS_4math2v4E
Library: ScePafWidget function: _ZNK3paf2ui3Box11GetBoundaryEPNS_4math2v4ES4_
Library: ScePafWidget function: _ZN3paf2ui3Box13UpdateBoxSizeEv
Library: ScePafWidget function: _ZN3paf2ui3Box18SetChildrenAdjustXENS1_14ChildrenAdjustEf
Library: ScePafWidget function: _ZN3paf2ui3Box18SetChildrenAdjustYENS1_14ChildrenAdjustEf
Library: ScePafWidget function: _ZN3paf2ui3Box13SetLayoutVarsERKNS1_10LayoutVarsE
Library: ScePafWidget function: _ZN3paf2ui3Box11SetChildPosEPNS0_6WidgetENS_4math2v4E
Library: ScePafWidget function: _ZN3paf2ui3Box18AddToExclusiveListEPNS0_6WidgetE
Library: ScePafWidget function: _ZN3paf2ui3Box23DeleteFromExclusiveListEPNS0_6WidgetE

Library: ScePafWidget function: _ZN3paf2ui8BoxParamC1Ev
Library: ScePafWidget function: _ZNK3paf2ui8BoxParam12GetParamNameEv
Library: ScePafWidget function: _ZN3paf2ui8BoxParam9ParamNameEv
Library: ScePafWidget function: _ZN3paf2ui8BoxParamC2Ev
Library: ScePafWidget function: _ZN3paf2ui8BoxParam6CreateEi
Library: ScePafWidget function: _ZN3paf2ui8BoxParam3SetEv

Library: ScePafWidget function: _ZN3paf2ui14BoxLayoutParamC1Ev
Library: ScePafWidget function: _ZNK3paf2ui14BoxLayoutParam12GetParamNameEv
Library: ScePafWidget function: _ZN3paf2ui14BoxLayoutParam9ParamNameEv
Library: ScePafWidget function: _ZN3paf2ui14BoxLayoutParamC2Ev
Library: ScePafWidget function: _ZN3paf2ui14BoxLayoutParam6CreateEi
Library: ScePafWidget function: _ZN3paf2ui14BoxLayoutParam3SetEv
Library: ScePafWidget function: _ZN3paf2ui14BoxLayoutParam3GetEv

Library: ScePafWidget function: _ZN3paf2ui11RadioButtonC1EPNS0_6WidgetEPNS2_11CreateParamE
Library: ScePafWidget function: _ZNK3paf2ui11RadioButton9IsInheritEPKc
Library: ScePafWidget function: _ZNK3paf2ui11RadioButton11GetTypeNameEv
Library: ScePafWidget function: _ZN3paf2ui11RadioButton8TypeNameEv
Library: ScePafWidget function: _ZN3paf2ui11RadioButtonC2EPNS0_6WidgetEPNS2_11CreateParamE
Library: ScePafWidget function: _ZN3paf2ui11RadioButton14OnButtonDecideEv

Library: ScePafWidget function: _ZN3paf2ui11ImageButtonD0Ev
Library: ScePafWidget function: _ZN3paf2ui11ImageButtonD2Ev
Library: ScePafWidget function: _ZN3paf2ui11ImageButtonC1EPNS0_6WidgetEPNS2_11CreateParamE
Library: ScePafWidget function: _ZNK3paf2ui11ImageButton9IsInheritEPKc
Library: ScePafWidget function: _ZNK3paf2ui11ImageButton11GetTypeNameEv
Library: ScePafWidget function: _ZN3paf2ui11ImageButton8TypeNameEv
Library: ScePafWidget function: _ZN3paf2ui11ImageButtonC2EPNS0_6WidgetEPNS2_11CreateParamE
Library: ScePafWidget function: _ZN3paf2ui11ImageButton6UpdateEv
Library: ScePafWidget function: _ZN3paf2ui11ImageButton15OverlayVerticalEv
Library: ScePafWidget function: _ZN3paf2ui11ImageButton12BackVerticalEv
Library: ScePafWidget function: _ZN3paf2ui11ImageButton13FrontVerticalEv
Library: ScePafWidget function: _ZN3paf2ui11ImageButton17OverlayHorizontalEv
Library: ScePafWidget function: _ZN3paf2ui11ImageButton14BackHorizontalEv
Library: ScePafWidget function: _ZN3paf2ui11ImageButton15FrontHorizontalEv
Library: ScePafWidget function: _ZN3paf2ui11ImageButton14UpdateObjsSizeEv
Library: ScePafWidget function: _ZN3paf2ui11ImageButton10SetTextureERKNS_13intrusive_ptrINS_5graph7SurfaceEEEij
Library: ScePafWidget function: _ZN3paf2ui11ImageButton14SetTextureSizeERKNS_4math2v3E
Library: ScePafWidget function: _ZN3paf2ui11ImageButton23SetTextureCrossFadeAnimEfi
Library: ScePafWidget function: _ZN3paf2ui11ImageButtonD1Ev

Library: ScePafWidget function: _ZNK3paf2ui16ImageButtonParam12GetParamNameEv
Library: ScePafWidget function: _ZN3paf2ui16ImageButtonParam9ParamNameEv
Library: ScePafWidget function: _ZN3paf2ui16ImageButtonParamC2Ev
Library: ScePafWidget function: _ZN3paf2ui16ImageButtonParamC1Ev

Library: ScePafWidget function: _ZNK3paf2ui21ImageButtonStyleParam12GetParamNameEv
Library: ScePafWidget function: _ZN3paf2ui21ImageButtonStyleParam9ParamNameEv
Library: ScePafWidget function: _ZN3paf2ui21ImageButtonStyleParam4InitEv
Library: ScePafWidget function: _ZN3paf2ui21ImageButtonStyleParam6CreateEi
Library: ScePafWidget function: _ZN3paf2ui21ImageButtonStyleParam7SetEachEPNS0_6WidgetE
Library: ScePafWidget function: _ZN3paf2ui21ImageButtonStyleParam7GetEachEPNS0_6WidgetE
Library: ScePafWidget function: _ZN3paf2ui21ImageButtonStyleParam9InitParamEv

Library: ScePafWidget function: _ZNK3paf2ui23ImageButtonHandlerParam12GetParamNameEv
Library: ScePafWidget function: _ZN3paf2ui23ImageButtonHandlerParam9ParamNameEv

Library: ScePafWidget function: _ZN3paf2ui8FileList6UpdateEv
Library: ScePafWidget function: _ZN3paf2ui8FileList11OnCellMovedEiii
Library: ScePafWidget function: _ZN3paf2ui8FileList15OnCellDragStartEii
Library: ScePafWidget function: _ZN3paf2ui8FileList14OnCellDragStopEii
Library: ScePafWidget function: _ZN3paf2ui8FileList10CreateItemERNS0_8listview11ItemFactory11CreateParamE
Library: ScePafWidget function: _ZN3paf2ui8FileList9StartItemERNS0_8listview11ItemFactory10StartParamE
Library: ScePafWidget function: _ZN3paf2ui8FileList8StopItemERNS0_8listview11ItemFactory9StopParamE
Library: ScePafWidget function: _ZN3paf2ui8FileList11DisposeItemERNS0_8listview11ItemFactory12DisposeParamE
Library: ScePafWidget function: _ZN3paf2ui8FileListC1EPNS0_6WidgetEPNS2_11CreateParamE
Library: ScePafWidget function: _ZNK3paf2ui8FileList9IsInheritEPKc
Library: ScePafWidget function: _ZNK3paf2ui8FileList11GetTypeNameEv
Library: ScePafWidget function: _ZN3paf2ui8FileList8TypeNameEv
Library: ScePafWidget function: _ZN3paf2ui8FileList16SetSegmentSourceENS_13intrusive_ptrINS0_8filelist13SegmentSourceEEE
Library: ScePafWidget function: _ZN3paf2ui8FileList12GetSegmentIDEi
Library: ScePafWidget function: _ZN3paf2ui8FileList13GetCellSourceEi
Library: ScePafWidget function: _ZN3paf2ui8FileListC2EPNS0_6WidgetEPNS2_11CreateParamE
Library: ScePafWidget function: _ZN3paf2ui8FileList9BeginDragEiii
Library: ScePafWidget function: _ZN3paf2ui8FileListD1Ev
Library: ScePafWidget function: _ZN3paf2ui8FileListD0Ev
Library: ScePafWidget function: _ZN3paf2ui8FileListD2Ev

Library: ScePafWidget function: _ZN3paf2ui8filelist14CellFocusParamC2Ev
Library: ScePafWidget function: _ZN3paf2ui8filelist14CellFocusParamD2Ev
Library: ScePafWidget function: _ZN3paf2ui8filelist14CellFocusParam3SetEiiNS0_8ListView14FocusAlignTypeEPNS_5TimerE
Library: ScePafWidget function: _ZN3paf2ui8filelist14CellFocusParamD1Ev
Library: ScePafWidget function: _ZN3paf2ui8filelist14CellFocusParam5ApplyEPNS0_8FileListE
Library: ScePafWidget function: _ZN3paf2ui8filelist14CellFocusParamC1Ev

Library: ScePafWidget function: _ZN3paf2ui8filelist16CellListAccessorC2EPNS0_8FileListEiPNS1_14CellFocusParamE
Library: ScePafWidget function: _ZN3paf2ui8filelist16CellListAccessor6InsertEij
Library: ScePafWidget function: _ZN3paf2ui8filelist16CellListAccessor6DeleteEij
Library: ScePafWidget function: _ZN3paf2ui8filelist16CellListAccessor6GetNumEv
Library: ScePafWidget function: _ZN3paf2ui8filelist16CellListAccessor9GetExistsERNS_6vectorINS1_6IDPairENS_9allocatorIS4_EEEE
Library: ScePafWidget function: _ZN3paf2ui8filelist16CellListAccessor8SetFocusEiNS0_8ListView14FocusAlignTypeEPNS_5TimerE
Library: ScePafWidget function: _ZN3paf2ui8filelist16CellListAccessorC1EPNS0_8FileListEiPNS1_14CellFocusParamE

Library: ScePafWidget function: _ZNK3paf2ui8filelist10CellSource9IsInheritEPKc
Library: ScePafWidget function: _ZNK3paf2ui8filelist10CellSource11GetTypeNameEv
Library: ScePafWidget function: _ZN3paf2ui8filelist10CellSource8TypeNameEv
Library: ScePafWidget function: _ZN3paf2ui8filelist10CellSource7IsDirtyEv
Library: ScePafWidget function: _ZN3paf2ui8filelist10CellSource6UpdateERNS1_16CellListAccessorE
Library: ScePafWidget function: _ZN3paf2ui8filelist10CellSource5GetIDEi
Library: ScePafWidget function: _ZN3paf2ui8filelist10CellSource13GetVisualizerERNS1_19VisualizerBindParamE
Library: ScePafWidget function: _ZN3paf2ui8filelist10CellSource13GetVisualSizeEv
Library: ScePafWidget function: _ZN3paf2ui8filelist10CellSource11IsDraggableEv
Library: ScePafWidget function: _ZN3paf2ui8filelist10CellSource7OnMovedEii
Library: ScePafWidget function: _ZN3paf2ui8filelist10CellSource11OnDragStartEi
Library: ScePafWidget function: _ZN3paf2ui8filelist10CellSource10OnDragStopEi
Library: ScePafWidget function: _ZN3paf2ui8filelist10CellSource9OnUpdatedEv

Library: ScePafWidget function: _ZN3paf2ui8filelist7Manager12PopCacheItemEjPNS0_6WidgetE
Library: ScePafWidget function: _ZN3paf2ui8filelist7Manager10InitializeERKNS2_9InitParamE
Library: ScePafWidget function: _ZN3paf2ui8filelist7Manager8FinalizeEv
Library: ScePafWidget function: _ZN3paf2ui8filelist7Manager11GetJobQueueENS2_9QueueTypeE
Library: ScePafWidget function: _ZN3paf2ui8filelist7Manager14GetStoragePathEv
Library: ScePafWidget function: _ZN3paf2ui8filelist7Manager8PostTaskENS2_9QueueTypeEPKcPFvPvES6_
Library: ScePafWidget function: _ZN3paf2ui8filelist7Manager13PushCacheItemEjPNS0_8ListItemE

Library: ScePafWidget function: _ZN3paf2ui8filelist19SegmentListAccessorC2EPNS0_8FileListE
Library: ScePafWidget function: _ZN3paf2ui8filelist19SegmentListAccessor6InsertEij
Library: ScePafWidget function: _ZN3paf2ui8filelist19SegmentListAccessor6DeleteEij
Library: ScePafWidget function: _ZN3paf2ui8filelist19SegmentListAccessor6GetNumEv
Library: ScePafWidget function: _ZN3paf2ui8filelist19SegmentListAccessor9GetExistsERNS_6vectorINS1_6IDPairENS_9allocatorIS4_EEEE
Library: ScePafWidget function: _ZN3paf2ui8filelist19SegmentListAccessor9SetOptionEiRNS2_11OptionParamE
Library: ScePafWidget function: _ZN3paf2ui8filelist19SegmentListAccessorC1EPNS0_8FileListE

Library: ScePafWidget function: _ZNK3paf2ui8filelist13SegmentSource9IsInheritEPKc
Library: ScePafWidget function: _ZNK3paf2ui8filelist13SegmentSource11GetTypeNameEv
Library: ScePafWidget function: _ZN3paf2ui8filelist13SegmentSource8TypeNameEv
Library: ScePafWidget function: _ZN3paf2ui8filelist13SegmentSource7IsDirtyEv
Library: ScePafWidget function: _ZN3paf2ui8filelist13SegmentSource6UpdateERNS1_19SegmentListAccessorE
Library: ScePafWidget function: _ZN3paf2ui8filelist13SegmentSource5GetIDEi
Library: ScePafWidget function: _ZN3paf2ui8filelist13SegmentSource13GetCellSourceEix
Library: ScePafWidget function: _ZN3paf2ui8filelist13SegmentSource9OnUpdatedEv

Library: ScePafWidget function: _ZNK3paf2ui8filelist10Visualizer9IsInheritEPKc
Library: ScePafWidget function: _ZNK3paf2ui8filelist10Visualizer11GetTypeNameEv
Library: ScePafWidget function: _ZN3paf2ui8filelist10Visualizer8TypeNameEv
Library: ScePafWidget function: _ZN3paf2ui8filelist10Visualizer5StartEv
Library: ScePafWidget function: _ZN3paf2ui8filelist10Visualizer4StopEv
Library: ScePafWidget function: _ZN3paf2ui8filelist10Visualizer11GetListItemEv

Library: ScePafWidget function: _ZN3paf2ui8filelist9GetCellIDEPNS0_8ListItemE
Library: ScePafWidget function: _ZN3paf2ui8filelist13GetVisualizerEPNS0_8ListItemE

Library: ScePafWidget function: _ZN3paf2ui9DirectBarD0Ev
Library: ScePafWidget function: _ZN3paf2ui9DirectBarD2Ev
Library: ScePafWidget function: _ZN3paf2ui9DirectBarC1EPNS0_6WidgetEPNS2_11CreateParamE
Library: ScePafWidget function: _ZNK3paf2ui9DirectBar9IsInheritEPKc
Library: ScePafWidget function: _ZNK3paf2ui9DirectBar11GetTypeNameEv
Library: ScePafWidget function: _ZN3paf2ui9DirectBar8TypeNameEv
Library: ScePafWidget function: _ZN3paf2ui9DirectBarC2EPNS0_6WidgetEPNS2_11CreateParamE
Library: ScePafWidget function: _ZN3paf2ui9DirectBar11SetObjColorERKNS_4math2v4Ei
Library: ScePafWidget function: _ZN3paf2ui9DirectBar11GetObjColorERNS_4math2v4Ei
Library: ScePafWidget function: _ZN3paf2ui9DirectBar9SetStringERKNS_12basic_stringIwNS_11char_traitsIwEENS_9allocatorIwEEEEi
Library: ScePafWidget function: _ZN3paf2ui9DirectBar9GetStringERNS_12basic_stringIwNS_11char_traitsIwEENS_9allocatorIwEEEEi
Library: ScePafWidget function: _ZN3paf2ui9DirectBar13DestroyWidgetEv
Library: ScePafWidget function: _ZN3paf2ui9DirectBar10CheckStateEv
Library: ScePafWidget function: _ZN3paf2ui9DirectBar10UpdateSizeEv
Library: ScePafWidget function: _ZN3paf2ui9DirectBar6OnDrawERNS_5graph8DrawInfoE
Library: ScePafWidget function: _ZN3paf2ui9DirectBar6UpdateEv
Library: ScePafWidget function: _ZN3paf2ui9DirectBar18OrientDragOutStateEPNS0_5EventE
Library: ScePafWidget function: _ZN3paf2ui9DirectBar9SendEventEiiiii
Library: ScePafWidget function: _ZN3paf2ui9DirectBar12GetPartsSizeEv
Library: ScePafWidget function: _ZN3paf2ui9DirectBar12GetHitNumberEPNS0_7HitInfoE
Library: ScePafWidget function: _ZN3paf2ui9DirectBar15OrientDragStateEPNS0_5EventE
Library: ScePafWidget function: _ZN3paf2ui9DirectBar17OrientNormalStateEPNS0_5EventE
Library: ScePafWidget function: _ZN3paf2ui9DirectBar16HandleTouchEventEPNS0_5EventE
Library: ScePafWidget function: _ZN3paf2ui9DirectBar16UpdateDBarLayoutEv
Library: ScePafWidget function: _ZN3paf2ui9DirectBar9GetBtnNumEv
Library: ScePafWidget function: _ZN3paf2ui9DirectBarD1Ev

Library: ScePafWidget function: _ZNK3paf2ui14DirectBarParam12GetParamNameEv
Library: ScePafWidget function: _ZN3paf2ui14DirectBarParam9ParamNameEv
Library: ScePafWidget function: _ZN3paf2ui14DirectBarParamC2Ev
Library: ScePafWidget function: _ZN3paf2ui14DirectBarParam6CreateEi
Library: ScePafWidget function: _ZN3paf2ui14DirectBarParam3SetEv
Library: ScePafWidget function: _ZN3paf2ui14DirectBarParam3GetEv
Library: ScePafWidget function: _ZN3paf2ui14DirectBarParamC1Ev

Library: ScePafWidget function: _ZNK3paf2ui19DirectBarStyleParam12GetParamNameEv
Library: ScePafWidget function: _ZN3paf2ui19DirectBarStyleParam9ParamNameEv
Library: ScePafWidget function: _ZN3paf2ui19DirectBarStyleParamC2Ev
Library: ScePafWidget function: _ZN3paf2ui19DirectBarStyleParam6CreateEi
Library: ScePafWidget function: _ZN3paf2ui19DirectBarStyleParam7SetEachEPNS0_6WidgetE
Library: ScePafWidget function: _ZN3paf2ui19DirectBarStyleParam7GetEachEPNS0_6WidgetE
Library: ScePafWidget function: _ZN3paf2ui19DirectBarStyleParamC1Ev

Library: ScePafWidget function: _ZN3paf2ui11ProgressBar8SetValueEfbNS1_5BarIdE
Library: ScePafWidget function: _ZN3paf2ui11ProgressBar13SetValueAsyncEfbNS1_5BarIdE
Library: ScePafWidget function: _ZN3paf2ui11ProgressBar8GetValueENS1_5BarIdE
Library: ScePafWidget function: _ZN3paf2ui11ProgressBar10SetBarAnimEfi
Library: ScePafWidget function: _ZN3paf2ui11ProgressBar14SetGlowVisibleEb
Library: ScePafWidget function: _ZN3paf2ui11ProgressBar13SetSignalAnimEb
Library: ScePafWidget function: _ZN3paf2ui11ProgressBar12IsSignalAnimEv
Library: ScePafWidget function: _ZN3paf2ui11ProgressBar17SetSignalAnimTimeEf
Library: ScePafWidget function: _ZN3paf2ui11ProgressBar16SetShadowVisibleEb
Library: ScePafWidget function: _ZN3paf2ui11ProgressBar14SetShadowParamERKNS1_11ShadowParamE
Library: ScePafWidget function: _ZN3paf2ui11ProgressBar17AttachLabelWidgetEPNS0_6WidgetE
Library: ScePafWidget function: _ZN3paf2ui11ProgressBar17DetachLabelWidgetEv
Library: ScePafWidget function: _ZN3paf2ui11ProgressBar14GetLabelWidgetEv
Library: ScePafWidget function: _ZN3paf2ui11ProgressBar12SetLabelModeENS1_9LabelModeE
Library: ScePafWidget function: _ZN3paf2ui11ProgressBar15SetLabelPosModeENS1_12LabelPosModeE
Library: ScePafWidget function: _ZN3paf2ui11ProgressBar14SetLabelMarginEf
Library: ScePafWidget function: _ZN3paf2ui11ProgressBar10SetTextureERKNS_13intrusive_ptrINS_5graph7SurfaceEEEij
Library: ScePafWidget function: _ZN3paf2ui11ProgressBar6UpdateEv
Library: ScePafWidget function: _ZN3paf2ui11ProgressBar10CheckStateEv
Library: ScePafWidget function: _ZN3paf2ui11ProgressBar10UpdateSizeEv
Library: ScePafWidget function: _ZN3paf2ui11ProgressBar14GetPartsWidgetEiPi
Library: ScePafWidget function: _ZN3paf2ui11ProgressBar13SetColor_coreERKNS_4math2v4E
Library: ScePafWidget function: _ZN3paf2ui11ProgressBar4SyncEv
Library: ScePafWidget function: _ZN3paf2ui11ProgressBar14CheckDirtyFlagEv
Library: ScePafWidget function: _ZN3paf2ui11ProgressBar16UpdateBaseShadowEv
Library: ScePafWidget function: _ZN3paf2ui11ProgressBar9UpdateBarENS1_5BarIdEb
Library: ScePafWidget function: _ZN3paf2ui11ProgressBar11UpdateLabelEv
Library: ScePafWidget function: _ZN3paf2ui11ProgressBar14UpdateLabelPosEv
Library: ScePafWidget function: _ZN3paf2ui11ProgressBarC1EPNS0_6WidgetEPNS2_11CreateParamE
Library: ScePafWidget function: _ZNK3paf2ui11ProgressBar9IsInheritEPKc
Library: ScePafWidget function: _ZNK3paf2ui11ProgressBar11GetTypeNameEv
Library: ScePafWidget function: _ZN3paf2ui11ProgressBar8TypeNameEv
Library: ScePafWidget function: _ZN3paf2ui11ProgressBarC2EPNS0_6WidgetEPNS2_11CreateParamE
Library: ScePafWidget function: _ZN3paf2ui11ProgressBarD1Ev
Library: ScePafWidget function: _ZN3paf2ui11ProgressBarD0Ev
Library: ScePafWidget function: _ZN3paf2ui11ProgressBarD2Ev
Library: ScePafWidget function: _ZN3paf2ui11ProgressBar10GetDrawObjEi
Library: ScePafWidget function: _ZN3paf2ui11ProgressBar11SetObjColorERKNS_4math2v4Ei
Library: ScePafWidget function: _ZN3paf2ui11ProgressBar11GetObjColorERNS_4math2v4Ei
Library: ScePafWidget function: _ZN3paf2ui11ProgressBar10SetBarModeENS1_7BarModeE
Library: ScePafWidget function: _ZN3paf2ui11ProgressBar11SetMaxValueEf
Library: ScePafWidget function: _ZN3paf2ui11ProgressBar16SetMaxValueAsyncEf
Library: ScePafWidget function: _ZN3paf2ui11ProgressBar11SetMinValueEf
Library: ScePafWidget function: _ZN3paf2ui11ProgressBar16SetMinValueAsyncEf

Library: ScePafWidget function: _ZNK3paf2ui16ProgressBarParam12GetParamNameEv
Library: ScePafWidget function: _ZN3paf2ui16ProgressBarParam9ParamNameEv
Library: ScePafWidget function: _ZN3paf2ui16ProgressBarParamC2Ev
Library: ScePafWidget function: _ZN3paf2ui16ProgressBarParam6CreateEi
Library: ScePafWidget function: _ZN3paf2ui16ProgressBarParam3SetEv
Library: ScePafWidget function: _ZN3paf2ui16ProgressBarParam3GetEv
Library: ScePafWidget function: _ZN3paf2ui16ProgressBarParamC1Ev

Library: ScePafWidget function: _ZNK3paf2ui21ProgressBarStyleParam12GetParamNameEv
Library: ScePafWidget function: _ZN3paf2ui21ProgressBarStyleParam9ParamNameEv
Library: ScePafWidget function: _ZN3paf2ui21ProgressBarStyleParamC2Ev
Library: ScePafWidget function: _ZN3paf2ui21ProgressBarStyleParam6CreateEi
Library: ScePafWidget function: _ZN3paf2ui21ProgressBarStyleParam7SetEachEPNS0_6WidgetE
Library: ScePafWidget function: _ZN3paf2ui21ProgressBarStyleParam7GetEachEPNS0_6WidgetE
Library: ScePafWidget function: _ZN3paf2ui21ProgressBarStyleParamC1Ev

Library: ScePafWidget function: _ZN3paf2ui16ProgressBarTouch14GetPartsWidgetEiPi
Library: ScePafWidget function: _ZN3paf2ui16ProgressBarTouch14CheckDirtyFlagEv
Library: ScePafWidget function: _ZN3paf2ui16ProgressBarTouch9UpdateBarENS0_11ProgressBar5BarIdEb
Library: ScePafWidget function: _ZN3paf2ui16ProgressBarTouch15UpdateSliderPosEb
Library: ScePafWidget function: _ZN3paf2ui16ProgressBarTouch21UpdateSliderDragRangeEv
Library: ScePafWidget function: _ZN3paf2ui16ProgressBarTouch17UpdateLabelSliderEf
Library: ScePafWidget function: _ZN3paf2ui16ProgressBarTouch20UpdateLabelSliderPosEv
Library: ScePafWidget function: _ZN3paf2ui16ProgressBarTouch7OnTouchEPNS0_5EventE
Library: ScePafWidget function: _ZN3paf2ui16ProgressBarTouch17OnDragSliderEventEiPNS0_7HandlerEPNS0_5EventEPv
Library: ScePafWidget function: _ZN3paf2ui16ProgressBarTouch17OnDragBeginSliderEPNS0_5EventE
Library: ScePafWidget function: _ZN3paf2ui16ProgressBarTouch16OnDragMoveSliderEPNS0_5EventE
Library: ScePafWidget function: _ZN3paf2ui16ProgressBarTouch15OnDragEndSliderEPNS0_5EventEb
Library: ScePafWidget function: _ZN3paf2ui16ProgressBarTouch12OnDragSliderEib
Library: ScePafWidget function: _ZN3paf2ui16ProgressBarTouchC1EPNS0_6WidgetEPNS2_11CreateParamE
Library: ScePafWidget function: _ZNK3paf2ui16ProgressBarTouch9IsInheritEPKc
Library: ScePafWidget function: _ZNK3paf2ui16ProgressBarTouch11GetTypeNameEv
Library: ScePafWidget function: _ZN3paf2ui16ProgressBarTouch8TypeNameEv
Library: ScePafWidget function: _ZN3paf2ui16ProgressBarTouchC2EPNS0_6WidgetEPNS2_11CreateParamE
Library: ScePafWidget function: _ZN3paf2ui16ProgressBarTouchD1Ev
Library: ScePafWidget function: _ZN3paf2ui16ProgressBarTouchD0Ev
Library: ScePafWidget function: _ZN3paf2ui16ProgressBarTouchD2Ev
Library: ScePafWidget function: _ZN3paf2ui16ProgressBarTouch10SetObjSizeERKNS_4math2v4Ei
Library: ScePafWidget function: _ZN3paf2ui16ProgressBarTouch10GetObjSizeERNS_4math2v4Ei
Library: ScePafWidget function: _ZN3paf2ui16ProgressBarTouch13SetSliderModeENS1_10SliderModeE
Library: ScePafWidget function: _ZN3paf2ui16ProgressBarTouch23AttachLabelSliderWidgetEPNS0_6WidgetE
Library: ScePafWidget function: _ZN3paf2ui16ProgressBarTouch23DetachLabelSliderWidgetEv
Library: ScePafWidget function: _ZN3paf2ui16ProgressBarTouch20GetLabelSliderWidgetEv
Library: ScePafWidget function: _ZN3paf2ui16ProgressBarTouch18SetLabelSliderModeENS0_11ProgressBar9LabelModeE
Library: ScePafWidget function: _ZN3paf2ui16ProgressBarTouch21SetLabelSliderPosModeENS0_11ProgressBar12LabelPosModeE
Library: ScePafWidget function: _ZN3paf2ui16ProgressBarTouch20SetLabelSliderMarginEf
Library: ScePafWidget function: _ZN3paf2ui16ProgressBarTouch16HandlePointEventEPNS0_5EventE
Library: ScePafWidget function: _ZN3paf2ui16ProgressBarTouch16HandleTouchEventEPNS0_5EventE

Library: ScePafWidget function: _ZNK3paf2ui21ProgressBarTouchParam12GetParamNameEv
Library: ScePafWidget function: _ZN3paf2ui21ProgressBarTouchParam9ParamNameEv
Library: ScePafWidget function: _ZN3paf2ui21ProgressBarTouchParamC2Ev
Library: ScePafWidget function: _ZN3paf2ui21ProgressBarTouchParam6CreateEi
Library: ScePafWidget function: _ZN3paf2ui21ProgressBarTouchParam3SetEv
Library: ScePafWidget function: _ZN3paf2ui21ProgressBarTouchParam3GetEv
Library: ScePafWidget function: _ZN3paf2ui21ProgressBarTouchParamC1Ev

Library: ScePafWidget function: _ZNK3paf2ui26ProgressBarTouchStyleParam12GetParamNameEv
Library: ScePafWidget function: _ZN3paf2ui26ProgressBarTouchStyleParam9ParamNameEv
Library: ScePafWidget function: _ZN3paf2ui26ProgressBarTouchStyleParamC2Ev
Library: ScePafWidget function: _ZN3paf2ui26ProgressBarTouchStyleParamC1Ev

Library: ScePafWidget function: _ZN3paf2ui6Camera7add_objEPNS0_6WidgetERNS_5graph8DrawInfoE
Library: ScePafWidget function: _ZN3paf2ui6Camera5SetupEPNS0_6ScreenE
Library: ScePafWidget function: _ZN3paf2ui6Camera18SetRollScreen_coreEf
Library: ScePafWidget function: _ZN3paf2ui6Camera13GetRollScreenEi
Library: ScePafWidget function: _ZN3paf2ui6Camera13SetRollScreenEfPNS_5TimerE
Library: ScePafWidget function: _ZN3paf2ui6Camera11SyncPostureEPS1_
Library: ScePafWidget function: _ZN3paf2ui6Camera11DrawScissorERKNS1_14DrawScissorArgE
Library: ScePafWidget function: _ZNK3paf2ui6Camera9IsInheritEPKc
Library: ScePafWidget function: _ZNK3paf2ui6Camera11GetTypeNameEv
Library: ScePafWidget function: _ZN3paf2ui6Camera8TypeNameEv
Library: ScePafWidget function: _ZN3paf2ui6CameraC1EPNS0_6WidgetEPNS2_11CreateParamE
Library: ScePafWidget function: _ZN3paf2ui6CameraC2EPNS0_6WidgetEPNS2_11CreateParamE
Library: ScePafWidget function: _ZN3paf2ui6CameraD1Ev
Library: ScePafWidget function: _ZN3paf2ui6CameraD0Ev
Library: ScePafWidget function: _ZN3paf2ui6CameraD2Ev

Library: ScePafWidget function: _ZN3paf2ui8CheckBoxC1EPNS0_6WidgetEPNS2_11CreateParamE
Library: ScePafWidget function: _ZNK3paf2ui8CheckBox9IsInheritEPKc
Library: ScePafWidget function: _ZNK3paf2ui8CheckBox11GetTypeNameEv
Library: ScePafWidget function: _ZN3paf2ui8CheckBox8TypeNameEv
Library: ScePafWidget function: _ZN3paf2ui8CheckBoxC2EPNS0_6WidgetEPNS2_11CreateParamE
Library: ScePafWidget function: _ZN3paf2ui8CheckBox14OnButtonDecideEv

Library: ScePafWidget function: _ZN3paf2ui6DialogC1EPNS0_6WidgetE
Library: ScePafWidget function: _ZNK3paf2ui6Dialog9IsInheritEPKc
Library: ScePafWidget function: _ZNK3paf2ui6Dialog11GetTypeNameEv
Library: ScePafWidget function: _ZN3paf2ui6Dialog8TypeNameEv
Library: ScePafWidget function: _ZN3paf2ui6DialogC2EPNS0_6WidgetE
Library: ScePafWidget function: _ZN3paf2ui6DialogD1Ev
Library: ScePafWidget function: _ZN3paf2ui6DialogD0Ev
Library: ScePafWidget function: _ZN3paf2ui6DialogD2Ev
Library: ScePafWidget function: _ZN3paf2ui6Dialog16HandlePointEventEPNS0_5EventE
Library: ScePafWidget function: _ZN3paf2ui6Dialog16HandleTouchEventEPNS0_5EventE
Library: ScePafWidget function: _ZN3paf2ui6Dialog12SetPartsListEPKNS1_9PartsListE
Library: ScePafWidget function: _ZN3paf2ui6Dialog16GetPartsWidgetIdEi
Library: ScePafWidget function: _ZN3paf2ui6Dialog14GetPartsWidgetEi
Library: ScePafWidget function: _ZN3paf2ui6Dialog14SetPartsStringEiRKNS_12basic_stringIwNS_11char_traitsIwEENS_9allocatorIwEEEE

Library: ScePafWidget function: _ZN3paf2ui11PlaneButtonC1EPNS0_6WidgetEPNS2_11CreateParamE
Library: ScePafWidget function: _ZN3paf2ui11PlaneButton8TypeNameEv
Library: ScePafWidget function: _ZNK3paf2ui11PlaneButton9IsInheritEPKc
Library: ScePafWidget function: _ZNK3paf2ui11PlaneButton11GetTypeNameEv
Library: ScePafWidget function: _ZN3paf2ui11PlaneButtonC2EPNS0_6WidgetEPNS2_11CreateParamE
Library: ScePafWidget function: _ZN3paf2ui11PlaneButton16UpdateAdjustSizeEv
Library: ScePafWidget function: _ZN3paf2ui11PlaneButton14UpdateObjsSizeEv
Library: ScePafWidget function: _ZNK3paf2ui11PlaneButton13GetLayoutSizeERKNS_4math2v4ES5_
Library: ScePafWidget function: _ZNK3paf2ui11PlaneButton14GetFitGeometryEPNS_4math2v4ES4_
Library: ScePafWidget function: _ZN3paf2ui11PlaneButton16UpdateButtonSizeEv
Library: ScePafWidget function: _ZN3paf2ui11PlaneButton17ChangeButtonStateENS0_10ButtonBase11ButtonStateE
Library: ScePafWidget function: _ZN3paf2ui11PlaneButton16SetStyleAnimatorENS1_9StyleTypeE

Library: ScePafWidget function: _ZN3paf2ui16PlaneButtonParamC1Ev
Library: ScePafWidget function: _ZNK3paf2ui16PlaneButtonParam12GetParamNameEv
Library: ScePafWidget function: _ZN3paf2ui16PlaneButtonParam9ParamNameEv
Library: ScePafWidget function: _ZN3paf2ui16PlaneButtonParamC2Ev

Library: ScePafWidget function: _ZN3paf2ui21PlaneButtonStyleParam9InitParamEv
Library: ScePafWidget function: _ZNK3paf2ui21PlaneButtonStyleParam12GetParamNameEv
Library: ScePafWidget function: _ZN3paf2ui21PlaneButtonStyleParam9ParamNameEv
Library: ScePafWidget function: _ZN3paf2ui21PlaneButtonStyleParam4InitEv
Library: ScePafWidget function: _ZN3paf2ui21PlaneButtonStyleParam6CreateEi
Library: ScePafWidget function: _ZN3paf2ui21PlaneButtonStyleParam7SetEachEPNS0_6WidgetE
Library: ScePafWidget function: _ZN3paf2ui21PlaneButtonStyleParam7GetEachEPNS0_6WidgetE

Library: ScePafWidget function: _ZNK3paf2ui23PlaneButtonHandlerParam12GetParamNameEv
Library: ScePafWidget function: _ZN3paf2ui23PlaneButtonHandlerParam9ParamNameEv

Library: ScePafWidget function: _ZN3paf2ui13BusyIndicatorC1EPNS0_6WidgetEPNS2_11CreateParamE
Library: ScePafWidget function: _ZN3paf2ui13BusyIndicatorC2EPNS0_6WidgetEPNS2_11CreateParamE
Library: ScePafWidget function: _ZN3paf2ui13BusyIndicator8TypeNameEv
Library: ScePafWidget function: _ZNK3paf2ui13BusyIndicator9IsInheritEPKc
Library: ScePafWidget function: _ZNK3paf2ui13BusyIndicator11GetTypeNameEv
Library: ScePafWidget function: _ZN3paf2ui13BusyIndicator5StartEv
Library: ScePafWidget function: _ZN3paf2ui13BusyIndicator4StopEv
Library: ScePafWidget function: _ZN3paf2ui13BusyIndicator11SetBallSizeEf
Library: ScePafWidget function: _ZN3paf2ui13BusyIndicatorD0Ev
Library: ScePafWidget function: _ZN3paf2ui13BusyIndicatorD1Ev
Library: ScePafWidget function: _ZN3paf2ui13BusyIndicatorD2Ev
Library: ScePafWidget function: _ZN3paf2ui13BusyIndicator11GetObjColorERNS_4math2v4Ei
Library: ScePafWidget function: _ZN3paf2ui13BusyIndicator11SetObjColorERKNS_4math2v4Ei

Library: ScePafWidget function: _ZN3paf2ui11AppIconBaseC1EPNS0_6WidgetEPNS2_11CreateParamE
Library: ScePafWidget function: _ZN3paf2ui11AppIconBaseC2EPNS0_6WidgetEPNS2_11CreateParamE
Library: ScePafWidget function: _ZN3paf2ui11AppIconBase8TypeNameEv
Library: ScePafWidget function: _ZNK3paf2ui11AppIconBase9IsInheritEPKc
Library: ScePafWidget function: _ZNK3paf2ui11AppIconBase11GetTypeNameEv
Library: ScePafWidget function: _ZN3paf2ui11AppIconBaseD0Ev
Library: ScePafWidget function: _ZN3paf2ui11AppIconBaseD1Ev
Library: ScePafWidget function: _ZN3paf2ui11AppIconBaseD2Ev

Library: ScePafWidget function: _ZN3paf2ui9AppIcon2dC1EPNS0_6WidgetEPNS2_11CreateParamE
Library: ScePafWidget function: _ZN3paf2ui9AppIcon2dC2EPNS0_6WidgetEPNS2_11CreateParamE
Library: ScePafWidget function: _ZN3paf2ui9AppIcon2d8TypeNameEv
Library: ScePafWidget function: _ZNK3paf2ui9AppIcon2d9IsInheritEPKc
Library: ScePafWidget function: _ZNK3paf2ui9AppIcon2d11GetTypeNameEv
Library: ScePafWidget function: _ZN3paf2ui9AppIcon2dD0Ev
Library: ScePafWidget function: _ZN3paf2ui9AppIcon2dD1Ev
Library: ScePafWidget function: _ZN3paf2ui9AppIcon2dD2Ev

Library: ScePafWidget function: _ZN3paf2ui12CornerButtonC1EPNS0_6WidgetEPNS2_11CreateParamE
Library: ScePafWidget function: _ZN3paf2ui12CornerButtonC2EPNS0_6WidgetEPNS2_11CreateParamE
Library: ScePafWidget function: _ZN3paf2ui12CornerButton8TypeNameEv
Library: ScePafWidget function: _ZNK3paf2ui12CornerButton9IsInheritEPKc
Library: ScePafWidget function: _ZNK3paf2ui12CornerButton11GetTypeNameEv
Library: ScePafWidget function: _ZN3paf2ui12CornerButtonD0Ev
Library: ScePafWidget function: _ZN3paf2ui12CornerButtonD1Ev
Library: ScePafWidget function: _ZN3paf2ui12CornerButtonD2Ev

Library: ScePafWidget function: _ZN3paf2ui15CompositeButtonC1EPNS0_6WidgetEPNS2_11CreateParamE
Library: ScePafWidget function: _ZN3paf2ui15CompositeButtonC2EPNS0_6WidgetEPNS2_11CreateParamE
Library: ScePafWidget function: _ZN3paf2ui15CompositeButton8TypeNameEv
Library: ScePafWidget function: _ZNK3paf2ui15CompositeButton9IsInheritEPKc
Library: ScePafWidget function: _ZNK3paf2ui15CompositeButton11GetTypeNameEv
Library: ScePafWidget function: _ZN3paf2ui15CompositeButtonD0Ev
Library: ScePafWidget function: _ZN3paf2ui15CompositeButtonD1Ev
Library: ScePafWidget function: _ZN3paf2ui15CompositeButtonD2Ev

Library: ScePafWidget function: _ZN3paf2ui15CompositeDrawerC1EPNS0_6WidgetEPNS2_11CreateParamE
Library: ScePafWidget function: _ZN3paf2ui15CompositeDrawerC2EPNS0_6WidgetEPNS2_11CreateParamE
Library: ScePafWidget function: _ZN3paf2ui15CompositeDrawer8TypeNameEv
Library: ScePafWidget function: _ZNK3paf2ui15CompositeDrawer9IsInheritEPKc
Library: ScePafWidget function: _ZNK3paf2ui15CompositeDrawer11GetTypeNameEv
Library: ScePafWidget function: _ZN3paf2ui15CompositeDrawerD0Ev
Library: ScePafWidget function: _ZN3paf2ui15CompositeDrawerD1Ev
Library: ScePafWidget function: _ZN3paf2ui15CompositeDrawerD2Ev

Library: ScePafWidget function: _ZN3paf2ui13SlideBarParamC1Ev
Library: ScePafWidget function: _ZN3paf2ui13SlideBarParamC2Ev
Library: ScePafWidget function: _ZNK3paf2ui13SlideBarParam12GetParamNameEv
Library: ScePafWidget function: _ZN3paf2ui13SlideBarParam9ParamNameEv
Library: ScePafWidget function: _ZN3paf2ui13SlideBarParam3SetEv
Library: ScePafWidget function: _ZN3paf2ui13SlideBarParam3GetEv
Library: ScePafWidget function: _ZN3paf2ui13SlideBarParam6CreateEi
Library: ScePafWidget variable: _ZTVN3paf2ui13SlideBarParamE
Library: ScePafWidget variable: _ZN3paf2ui13SlideBarParam12m_param_nameE
Library: ScePafWidget variable: _ZN3paf2ui13SlideBarParam13c_textureListE

Library: ScePafWidget function: _ZN3paf2ui6CanvasC1EPNS0_6WidgetEPNS2_11CreateParamE
Library: ScePafWidget function: _ZN3paf2ui6CanvasC2EPNS0_6WidgetEPNS2_11CreateParamE
Library: ScePafWidget function: _ZN3paf2ui6CanvasD0Ev
Library: ScePafWidget function: _ZN3paf2ui6CanvasD1Ev
Library: ScePafWidget function: _ZN3paf2ui6CanvasD2Ev
Library: ScePafWidget variable: _ZTVN3paf2ui6CanvasE

Library: ScePafWidget variable: _ZTVN3paf2ui11EnvironmentE
Library: ScePafWidget variable: _ZTVN3paf2ui7HandlerE
Library: ScePafWidget variable: _ZN3paf2ui12AnimListener12s_prop_alignE
Library: ScePafWidget variable: _ZN3paf2ui12AnimListener13s_prop_anchorE
Library: ScePafWidget variable: _ZN3paf2ui12AnimListener12s_prop_colorE
Library: ScePafWidget variable: _ZN3paf2ui12AnimListener16s_prop_metaalphaE
Library: ScePafWidget variable: _ZN3paf2ui12AnimListener11s_prop_moveE
Library: ScePafWidget variable: _ZN3paf2ui12AnimListener13s_prop_originE
Library: ScePafWidget variable: _ZN3paf2ui12AnimListener11s_prop_quatE
Library: ScePafWidget variable: _ZN3paf2ui12AnimListener10s_prop_rotE
Library: ScePafWidget variable: _ZN3paf2ui12AnimListener12s_prop_scaleE
Library: ScePafWidget variable: _ZN3paf2ui12AnimListener16s_prop_showalphaE
Library: ScePafWidget variable: _ZN3paf2ui12AnimListener11s_prop_sizeE
Library: ScePafWidget variable: _ZTVN3paf2ui8LayouterE
Library: ScePafWidget variable: _ZN3paf2ui8Layouter14s_enter_layoutE
Library: ScePafWidget variable: _ZN3paf2ui8Animator16s_enter_animatorE
Library: ScePafWidget variable: _ZN3paf2ui15AnimListenerObj16s_prop_obj_colorE
Library: ScePafWidget variable: _ZN3paf2ui15AnimListenerObj15s_prop_obj_moveE
Library: ScePafWidget variable: _ZN3paf2ui15AnimListenerObj14s_prop_obj_rotE
Library: ScePafWidget variable: _ZN3paf2ui15AnimListenerObj15s_prop_obj_sizeE
Library: ScePafWidget variable: _ZTVN3paf2ui18TexAnimListenerObjE
Library: ScePafWidget variable: _ZTVN3paf2ui13AnimQueueBaseE
Library: ScePafWidget variable: _ZTVN3paf2ui9AnimQueueE
Library: ScePafWidget variable: _ZTVN3paf2ui6ScreenE
Library: ScePafWidget variable: _ZN3paf2ui6Screen13s_root_screenE
Library: ScePafWidget variable: _ZTVN3paf2ui6WidgetE
Library: ScePafWidget variable: _ZN3paf2ui6Widget13m_widget_typeE
Library: ScePafWidget variable: _ZN3paf2ui6Widget20s_base_destroy_countE
Library: ScePafWidget variable: _ZN3paf2ui6Widget18s_destroying_countE
Library: ScePafWidget variable: _ZN3paf2ui6Widget16s_instance_countE
Library: ScePafWidget variable: _ZN3paf2ui6Widget15s_list_restructE
Library: ScePafWidget variable: _ZN3paf2ui6Widget15s_upmat_count_LE
Library: ScePafWidget variable: _ZN3paf2ui6Widget15s_upmat_count_WE
Library: ScePafWidget variable: _ZTVN3paf2ui14ScrollViewBaseE
Library: ScePafWidget variable: _ZN3paf2ui14ScrollViewBase13m_widget_typeE
Library: ScePafWidget variable: _ZTVN3paf2ui10ButtonBaseE
Library: ScePafWidget variable: _ZN3paf2ui10ButtonBase13m_widget_typeE
Library: ScePafWidget variable: _ZTVN3paf2ui15StateButtonBaseE
Library: ScePafWidget variable: _ZN3paf2ui15StateButtonBase13m_widget_typeE
Library: ScePafWidget variable: _ZTVN3paf2ui6ButtonE
Library: ScePafWidget variable: _ZN3paf2ui6Button13m_widget_typeE
Library: ScePafWidget variable: _ZTVN3paf2ui5SceneE
Library: ScePafWidget variable: _ZN3paf2ui5Scene13m_widget_typeE
Library: ScePafWidget variable: _ZTVN3paf2ui4TextE
Library: ScePafWidget variable: _ZN3paf2ui4Text13m_widget_typeE
Library: ScePafWidget variable: _ZN3paf2ui4Text20c_caretBlinkFadeMsecE
Library: ScePafWidget variable: _ZN3paf2ui4Text20c_caretBlinkIdleMsecE
Library: ScePafWidget variable: _ZN3paf2ui4Text20c_caretScrollPosMsecE
Library: ScePafWidget variable: _ZN3paf2ui4Text15c_floatInfinityE
Library: ScePafWidget variable: _ZTVN3paf2ui8RichTextE
Library: ScePafWidget variable: _ZN3paf2ui8RichText13m_widget_typeE
Library: ScePafWidget variable: _ZTVN3paf2ui8RadioBoxE
Library: ScePafWidget variable: _ZN3paf2ui8RadioBox13m_widget_typeE
Library: ScePafWidget variable: _ZTVN3paf2ui16ScrollViewParentE
Library: ScePafWidget variable: _ZN3paf2ui16ScrollViewParent13m_widget_typeE
Library: ScePafWidget variable: _ZTVN3paf2ui10ScrollViewE
Library: ScePafWidget variable: _ZN3paf2ui10ScrollView13m_widget_typeE
Library: ScePafWidget variable: _ZTVN3paf2ui7TextBoxE
Library: ScePafWidget variable: _ZN3paf2ui7TextBox13m_widget_typeE
Library: ScePafWidget variable: _ZTVN3paf2ui19TextBoxEditListenerE
Library: ScePafWidget variable: _ZN3paf2ui7TextBox12c_caretWidthE
Library: ScePafWidget variable: _ZTVN3paf2ui8ListViewE
Library: ScePafWidget variable: _ZN3paf2ui8ListView13m_widget_typeE
Library: ScePafWidget variable: _ZTVN3paf2ui11ItemFactoryE
Library: ScePafWidget variable: _ZTVN3paf2ui11ScrollBar2dE
Library: ScePafWidget variable: _ZN3paf2ui11ScrollBar2d13m_widget_typeE
Library: ScePafWidget variable: _ZTVN3paf2ui9ScrollBarE
Library: ScePafWidget variable: _ZN3paf2ui9ScrollBar13m_widget_typeE
Library: ScePafWidget variable: _ZTVN3paf2ui14ScrollBarTouchE
Library: ScePafWidget variable: _ZN3paf2ui14ScrollBarTouch13m_widget_typeE
Library: ScePafWidget variable: _ZTVN3paf2ui13SlidingDrawerE
Library: ScePafWidget variable: _ZN3paf2ui13SlidingDrawer13m_widget_typeE
Library: ScePafWidget variable: _ZTVN3paf2ui13ImageSlideBarE
Library: ScePafWidget variable: _ZN3paf2ui13ImageSlideBar13m_widget_typeE
Library: ScePafWidget variable: _ZTVN3paf2ui8ListItemE
Library: ScePafWidget variable: _ZN3paf2ui8ListItem13m_widget_typeE
Library: ScePafWidget variable: _ZTVN3paf2ui5PlaneE
Library: ScePafWidget variable: _ZN3paf2ui5Plane13m_widget_typeE
Library: ScePafWidget variable: _ZTVN3paf2ui3BoxE
Library: ScePafWidget variable: _ZN3paf2ui3Box13m_widget_typeE
Library: ScePafWidget variable: _ZTVN3paf2ui11RadioButtonE
Library: ScePafWidget variable: _ZN3paf2ui11RadioButton13m_widget_typeE
Library: ScePafWidget variable: _ZTVN3paf2ui11ImageButtonE
Library: ScePafWidget variable: _ZN3paf2ui11ImageButton13m_widget_typeE
Library: ScePafWidget variable: _ZTVN3paf2ui8FileListE
Library: ScePafWidget variable: _ZN3paf2ui8FileList13m_widget_typeE
Library: ScePafWidget variable: _ZTVN3paf2ui8filelist10CellSourceE
Library: ScePafWidget variable: _ZTVN3paf2ui8filelist13SegmentSourceE
Library: ScePafWidget variable: _ZTVN3paf2ui8filelist10VisualizerE
Library: ScePafWidget variable: _ZTVN3paf2ui8filelist19SegmentListAccessorE
Library: ScePafWidget variable: _ZTVN3paf2ui8filelist16CellListAccessorE
Library: ScePafWidget variable: _ZN3paf2ui8filelist10Visualizer11m_type_nameE
Library: ScePafWidget variable: _ZN3paf2ui8filelist13SegmentSource11m_type_nameE
Library: ScePafWidget variable: _ZN3paf2ui8filelist10CellSource11m_type_nameE
Library: ScePafWidget variable: _ZTVN3paf2ui9DirectBarE
Library: ScePafWidget variable: _ZN3paf2ui9DirectBar13m_widget_typeE
Library: ScePafWidget variable: _ZTVN3paf2ui11ProgressBarE
Library: ScePafWidget variable: _ZN3paf2ui11ProgressBar13m_widget_typeE
Library: ScePafWidget variable: _ZTVN3paf2ui16ProgressBarTouchE
Library: ScePafWidget variable: _ZN3paf2ui16ProgressBarTouch13m_widget_typeE
Library: ScePafWidget variable: _ZTVN3paf2ui6CameraE
Library: ScePafWidget variable: _ZN3paf2ui6Camera13m_widget_typeE
Library: ScePafWidget variable: _ZTVN3paf2ui8CheckBoxE
Library: ScePafWidget variable: _ZN3paf2ui8CheckBox13m_widget_typeE
Library: ScePafWidget variable: _ZTVN3paf2ui6DialogE
Library: ScePafWidget variable: _ZN3paf2ui6Dialog13m_widget_typeE
Library: ScePafWidget variable: _ZTVN3paf2ui11PlaneButtonE
Library: ScePafWidget variable: _ZN3paf2ui11PlaneButton13m_widget_typeE
Library: ScePafWidget variable: _ZTVN3paf2ui13BusyIndicatorE
Library: ScePafWidget variable: _ZN3paf2ui13BusyIndicator13m_widget_typeE
Library: ScePafWidget variable: _ZTVN3paf2ui11AppIconBaseE
Library: ScePafWidget variable: _ZN3paf2ui11AppIconBase13m_widget_typeE
Library: ScePafWidget variable: _ZTVN3paf2ui9AppIcon2dE
Library: ScePafWidget variable: _ZN3paf2ui9AppIcon2d13m_widget_typeE
Library: ScePafWidget variable: _ZTVN3paf2ui12CornerButtonE
Library: ScePafWidget variable: _ZN3paf2ui12CornerButton13m_widget_typeE
Library: ScePafWidget variable: _ZTVN3paf2ui15CompositeButtonE
Library: ScePafWidget variable: _ZN3paf2ui15CompositeButton13m_widget_typeE
Library: ScePafWidget variable: _ZTVN3paf2ui15CompositeDrawerE
Library: ScePafWidget variable: _ZN3paf2ui15CompositeDrawer13m_widget_typeE
Library: ScePafWidget variable: _ZTVN3paf2ui8listview11ItemFactoryE
Library: ScePafWidget variable: _ZN3paf2ui16s_widget91871D2DE nidvalue: 0x91871D2D
Library: ScePafWidget variable: g_factoryBox
Library: ScePafWidget variable: g_factoryBusyIndicator
Library: ScePafWidget variable: g_factoryButton
Library: ScePafWidget variable: g_factoryButtonBase
Library: ScePafWidget variable: g_factoryCheckBox
Library: ScePafWidget variable: g_factoryCornerButton
Library: ScePafWidget variable: g_factoryDialog
Library: ScePafWidget variable: g_factoryDirectBar
Library: ScePafWidget variable: g_factoryFileList
Library: ScePafWidget variable: g_factoryGroup
Library: ScePafWidget variable: g_factoryImageButton
Library: ScePafWidget variable: g_factoryImageSlideBar
Library: ScePafWidget variable: g_factoryListItem
Library: ScePafWidget variable: g_factoryListView
Library: ScePafWidget variable: g_factoryPageTurn
Library: ScePafWidget variable: g_factoryPageTurnBase
Library: ScePafWidget variable: g_factoryPlane
Library: ScePafWidget variable: g_factoryPlaneButton
Library: ScePafWidget variable: g_factoryProgressBar
Library: ScePafWidget variable: g_factoryProgressBarTouch
Library: ScePafWidget variable: g_factoryRadioBox
Library: ScePafWidget variable: g_factoryRadioButton
Library: ScePafWidget variable: g_factoryRichText
Library: ScePafWidget variable: g_factoryScrollBar
Library: ScePafWidget variable: g_factoryScrollBar2d
Library: ScePafWidget variable: g_factoryScrollBarTouch
Library: ScePafWidget variable: g_factoryScrollView
Library: ScePafWidget variable: g_factoryScrollViewBase
Library: ScePafWidget variable: g_factorySlideBar
Library: ScePafWidget variable: g_factorySlidingDrawer
Library: ScePafWidget variable: g_factoryStateButtonBase
Library: ScePafWidget variable: g_factorySupplier
Library: ScePafWidget variable: g_factoryText
Library: ScePafWidget variable: g_factoryTextBox