emd: 1

Library: ScePafCommon attr: auto_export
Library: ScePafCommon version: 1
Library: ScePafCommon stubfile: "libScePafCommon_stub"
Library: ScePafCommon nidsuffix: "PAF"
Library: ScePafCommon libnamenid: 0x3C1965CD

Library: ScePafCommon function: _ZN3paf6common5SubstERKNS_12basic_stringIcNS_11char_traitsIcEENS_9allocatorIcEEEES8_S8_j
Library: ScePafCommon function: _ZN3paf6common6RmatchERKNS_12basic_stringIcNS_11char_traitsIcEENS_9allocatorIcEEEES8_
Library: ScePafCommon function: _ZN3paf6common13StripFilenameERKNS_12basic_stringIcNS_11char_traitsIcEENS_9allocatorIcEEEES8_
Library: ScePafCommon function: _ZN3paf6common8ToStringEfbbb
Library: ScePafCommon function: _ZN3paf6common14FormatBytesizeEji
Library: ScePafCommon function: _ZN3paf6common12FormatStringEPKcz
Library: ScePafCommon function: _ZN3paf6common10FromStringIfEET_PKcj
Library: ScePafCommon function: _ZN3paf6common10FromStringIiEET_PKcj

Library: ScePafCommon function: _ZN3paf6common6RefObj6AddRefEv
Library: ScePafCommon function: _ZN3paf6common6RefObj7ReleaseEv
Library: ScePafCommon function: _ZN3paf6common6RefObjC1Ev
Library: ScePafCommon function: _ZN3paf6common6RefObjC2Ev

Library: ScePafCommon function: _ZN3paf6common8CallListC1Ev
Library: ScePafCommon function: _ZN3paf6common8CallListC2Ev
Library: ScePafCommon function: _ZN3paf6common8CallList8RegisterEPFvPvES2_
Library: ScePafCommon function: _ZN3paf6common8CallList10UnregisterEPFvPvES2_
Library: ScePafCommon function: _ZN3paf6common8CallList6UpdateEPNS_6thread5MutexE
Library: ScePafCommon function: _ZN3paf6common8CallList6GetNumEv

Library: ScePafCommon function: _ZN3paf6common10FrameCountEv
Library: ScePafCommon function: _ZN3paf6common8internal15ResetFrameCountEv
Library: ScePafCommon function: _ZN3paf6common8internal14IncrFrameCountEv

Library: ScePafCommon function: _ZN3paf6common12JobCallQueueC1ERKNS_12basic_stringIcNS_11char_traitsIcEENS_9allocatorIcEEEEPNS_3job8JobQueueE
Library: ScePafCommon function: _ZN3paf6common12JobCallQueueC2ERKNS_12basic_stringIcNS_11char_traitsIcEENS_9allocatorIcEEEEPNS_3job8JobQueueE
Library: ScePafCommon function: _ZN3paf6common12JobCallQueueD1Ev
Library: ScePafCommon function: _ZN3paf6common12JobCallQueueD2Ev
Library: ScePafCommon function: _ZN3paf6common12JobCallQueue9WaitEmptyEv
Library: ScePafCommon function: _ZN3paf6common12JobCallQueue5CheckEv
Library: ScePafCommon function: _ZN3paf6common12JobCallQueue7EnqueueEPKcPFvPvES4_
Library: ScePafCommon function: _ZN3paf6common12JobCallQueue8NumItemsEv

Library: ScePafCommon function: _ZN3paf6common18MainThreadCallList8RegisterEPFvPvES2_
Library: ScePafCommon function: _ZN3paf6common18MainThreadCallList10UnregisterEPFvPvES2_

Library: ScePafCommon function: _ZNK3paf6common13property_list15PropertyElement9IsInheritEPKc
Library: ScePafCommon function: _ZNK3paf6common13property_list15PropertyElement11GetTypeNameEv
Library: ScePafCommon function: _ZN3paf6common13property_list15PropertyElement8TypeNameEv

Library: ScePafCommon function: _ZNK3paf6common13property_list13StringElement9IsInheritEPKc
Library: ScePafCommon function: _ZNK3paf6common13property_list13StringElement11GetTypeNameEv
Library: ScePafCommon function: _ZN3paf6common13property_list13StringElement8TypeNameEv
Library: ScePafCommon function: _ZN3paf6common13property_list13StringElement9GetStringENS0_9SharedPtrINS1_15PropertyElementEEE

Library: ScePafCommon function: _ZNK3paf6common13property_list14WStringElement9IsInheritEPKc
Library: ScePafCommon function: _ZNK3paf6common13property_list14WStringElement11GetTypeNameEv
Library: ScePafCommon function: _ZN3paf6common13property_list14WStringElement8TypeNameEv
Library: ScePafCommon function: _ZN3paf6common13property_list14WStringElement9GetStringENS0_9SharedPtrINS1_15PropertyElementEEE

Library: ScePafCommon function: _ZN3paf6common13property_list12PropertyList10SetElementERKNS_7IDParamENS0_9SharedPtrINS1_15PropertyElementEEE
Library: ScePafCommon function: _ZN3paf6common13property_list12PropertyList10SetElementEjNS0_9SharedPtrINS1_15PropertyElementEEE
Library: ScePafCommon function: _ZN3paf6common13property_list12PropertyList9SetStringERKNS_7IDParamERKNS_12basic_stringIcNS_11char_traitsIcEENS_9allocatorIcEEEE
Library: ScePafCommon function: _ZN3paf6common13property_list12PropertyList9SetStringEjRKNS_12basic_stringIcNS_11char_traitsIcEENS_9allocatorIcEEEE
Library: ScePafCommon function: _ZN3paf6common13property_list12PropertyList10SetWStringERKNS_7IDParamERKNS_12basic_stringIwNS_11char_traitsIwEENS_9allocatorIwEEEE
Library: ScePafCommon function: _ZN3paf6common13property_list12PropertyList10SetWStringEjRKNS_12basic_stringIwNS_11char_traitsIwEENS_9allocatorIwEEEE
Library: ScePafCommon function: _ZN3paf6common13property_list12PropertyList8SetValueERKNS_7IDParamENS1_13PropertyValueE
Library: ScePafCommon function: _ZN3paf6common13property_list12PropertyList8SetValueEjNS1_13PropertyValueE
Library: ScePafCommon function: _ZNK3paf6common13property_list12PropertyList10GetElementERKNS_7IDParamE
Library: ScePafCommon function: _ZNK3paf6common13property_list12PropertyList10GetElementEj
Library: ScePafCommon function: _ZNK3paf6common13property_list12PropertyList9GetStringERKNS_7IDParamE
Library: ScePafCommon function: _ZNK3paf6common13property_list12PropertyList9GetStringEj
Library: ScePafCommon function: _ZNK3paf6common13property_list12PropertyList10GetWStringERKNS_7IDParamE
Library: ScePafCommon function: _ZNK3paf6common13property_list12PropertyList10GetWStringEj
Library: ScePafCommon function: _ZNK3paf6common13property_list12PropertyList8GetValueERKNS_7IDParamE
Library: ScePafCommon function: _ZNK3paf6common13property_list12PropertyList8GetValueEj
Library: ScePafCommon function: _ZNK3paf6common13property_list12PropertyList10HasElementERKNS_7IDParamE
Library: ScePafCommon function: _ZNK3paf6common13property_list12PropertyList8HasValueERKNS_7IDParamE

Library: ScePafCommon function: _ZN3paf6common11string_util8ToStringEPKvj
Library: ScePafCommon function: _ZN3paf6common11string_util8tokenizeERNS_4listINS_12basic_stringIcNS_11char_traitsIcEENS_9allocatorIcEEEENS6_IS8_EEEERKS8_jc
Library: ScePafCommon function: _ZN3paf6common11string_util8dissolveERNS_4listINS_12basic_stringIcNS_11char_traitsIcEENS_9allocatorIcEEEENS6_IS8_EEEERKS8_jcc
Library: ScePafCommon function: _ZN3paf6common11string_util7mappingERNS_3mapINS_12basic_stringIcNS_11char_traitsIcEENS_9allocatorIcEEEES8_NS_4lessIS8_EENS6_IS8_EEEERKS8_jcc

Library: ScePafCommon function: _ZN3paf6common6StringD1Ev
Library: ScePafCommon function: _ZN3paf6common6StringD2Ev
Library: ScePafCommon function: _ZN3paf6common6StringC1Ev
Library: ScePafCommon function: _ZN3paf6common6StringC2Ev
Library: ScePafCommon function: _ZN3paf6common6StringC1EPKc
Library: ScePafCommon function: _ZN3paf6common6StringC2EPKc
Library: ScePafCommon function: _ZN3paf6common6StringC1EPKw
Library: ScePafCommon function: _ZN3paf6common6StringC2EPKw
Library: ScePafCommon function: _ZN3paf6common6StringC1ERKNS_12basic_stringIwNS_11char_traitsIwEENS_9allocatorIwEEEE
Library: ScePafCommon function: _ZN3paf6common6StringC2ERKNS_12basic_stringIwNS_11char_traitsIwEENS_9allocatorIwEEEE
Library: ScePafCommon function: _ZN3paf6common6StringC1ERKNS_12basic_stringIcNS_11char_traitsIcEENS_9allocatorIcEEEE
Library: ScePafCommon function: _ZN3paf6common6StringC2ERKNS_12basic_stringIcNS_11char_traitsIcEENS_9allocatorIcEEEE
Library: ScePafCommon function: _ZN3paf6common6StringpLERKS1_
Library: ScePafCommon function: _ZN3paf6common6StringeqERKS1_
Library: ScePafCommon function: _ZN3paf6common6StringneERKS1_
Library: ScePafCommon function: _ZN3paf6common6StringplERKS1_
Library: ScePafCommon function: _ZN3paf6common6String5SplitEc
Library: ScePafCommon function: _ZN3paf6common6String5SplitERKNS_12basic_stringIcNS_11char_traitsIcEENS_9allocatorIcEEEE
Library: ScePafCommon function: _ZN3paf6common6String18SetFormattedStringEPKcz
Library: ScePafCommon function: _ZN3paf6common6String18SetFormattedStringEPKwz
Library: ScePafCommon function: _ZNK3paf6common6String9GetStringEv
Library: ScePafCommon function: _ZNK3paf6common6String10GetWStringEv

Library: ScePafCommon function: _ZN3paf15common_internal8on_errorEv
Library: ScePafCommon function: _ZN3paf15common_internal14printf_enabledEv

Library: ScePafCommon function: _ZN3paf6common11Utf16ToUtf8EPKwPNS_12basic_stringIcNS_11char_traitsIcEENS_9allocatorIcEEEE
Library: ScePafCommon function: _ZN3paf6common11Utf16ToUtf8EPKwPNS_12basic_stringIcNS_11char_traitsIcEENS_9allocatorIcEEEEi
Library: ScePafCommon function: _ZN3paf6common11Utf16ToUtf8ERKNS_12basic_stringIwNS_11char_traitsIwEENS_9allocatorIwEEEEPNS1_IcNS2_IcEENS4_IcEEEE
Library: ScePafCommon function: _ZN3paf6common11Utf16ToUtf8ERKNS_12basic_stringIwNS_11char_traitsIwEENS_9allocatorIwEEEEPNS1_IcNS2_IcEENS4_IcEEEEi
Library: ScePafCommon function: _ZN3paf6common11Utf8ToUtf16EPKcPNS_12basic_stringIwNS_11char_traitsIwEENS_9allocatorIwEEEE
Library: ScePafCommon function: _ZN3paf6common11Utf8ToUtf16EPKcPNS_12basic_stringIwNS_11char_traitsIwEENS_9allocatorIwEEEEi
Library: ScePafCommon function: _ZN3paf6common11Utf8ToUtf16ERKNS_12basic_stringIcNS_11char_traitsIcEENS_9allocatorIcEEEEPNS1_IwNS2_IwEENS4_IwEEEE
Library: ScePafCommon function: _ZN3paf6common11Utf8ToUtf16ERKNS_12basic_stringIcNS_11char_traitsIcEENS_9allocatorIcEEEEPNS1_IwNS2_IwEENS4_IwEEEEi

Library: ScePafCommon function: _ZN3paf6common4path4JoinERKNS_12basic_stringIcNS_11char_traitsIcEENS_9allocatorIcEEEES9_
Library: ScePafCommon function: _ZN3paf6common4path5SplitERKNS_12basic_stringIcNS_11char_traitsIcEENS_9allocatorIcEEEERS7_SA_
Library: ScePafCommon function: _ZN3paf6common4path8SplitExtERKNS_12basic_stringIcNS_11char_traitsIcEENS_9allocatorIcEEEERS7_SA_

Library: ScePafCommon function: _ZN3paf6common10transition15GetDefaultDelayENS1_4TypeE nidvalue: 0xDE5322EB
Library: ScePafCommon function: _ZN3paf6common10transition22GetDefaultDelayReverseENS1_4TypeEPNS_2ui6WidgetE nidvalue: 0xC85E4F3A
Library: ScePafCommon function: _ZN3paf6common10transition2DoEfPNS_2ui6WidgetENS1_4TypeEbb nidvalue: 0x6CF3A3C8
Library: ScePafCommon function: _ZN3paf6common10transition9DoReverseEfPNS_2ui6WidgetENS1_4TypeEbb nidvalue: 0xB48C9BDC

Library: ScePafCommon function: _ZN3paf6common14MainThreadCallC1EPNS1_10StateCheckEPFvPvES4_ nidvalue: 0x168104A7
Library: ScePafCommon function: _ZN3paf6common14MainThreadCallC2EPNS1_10StateCheckEPFvPvES4_ nidvalue: 0x8D3DC5B5
Library: ScePafCommon function: _ZN3paf6common14MainThreadCallD1Ev nidvalue: 0xCDAADD57
Library: ScePafCommon function: _ZN3paf6common14MainThreadCallD2Ev nidvalue: 0xA7A6F8C0
Library: ScePafCommon function: _ZN3paf6common14MainThreadCall3RunEPv nidvalue: 0xAC79C8D3
Library: ScePafCommon function: _ZN3paf6common14MainThreadCall10StateCheck5SleepEv nidvalue: 0x83FFAFCA

Library: ScePafCommon function: _ZN3paf4ViewC1ERKNS_12basic_stringIcNS_11char_traitsIcEENS_9allocatorIcEEEES8_PNS_14ViewControllerE nidvalue: 0x547491A7
Library: ScePafCommon function: _ZN3paf4ViewC2ERKNS_12basic_stringIcNS_11char_traitsIcEENS_9allocatorIcEEEES8_PNS_14ViewControllerE nidvalue: 0x9109458C
Library: ScePafCommon function: _ZN3paf4ViewD0Ev nidvalue: 0xED9652F0
Library: ScePafCommon function: _ZN3paf4ViewD1Ev nidvalue: 0x17280204
Library: ScePafCommon function: _ZN3paf4ViewD2Ev nidvalue: 0x8BC826E1
Library: ScePafCommon function: _ZN3paf4View10BindWidgetEPNS_6PluginEPNS_2ui6WidgetE nidvalue: 0xE234DA6E

Library: ScePafCommon variable: _ZN3paf6common15_error_callbackE
Library: ScePafCommon variable: _ZN3paf6common13property_list15PropertyElement11m_type_nameE
Library: ScePafCommon variable: _ZTVN3paf6common13property_list15PropertyElementE
Library: ScePafCommon variable: _ZN3paf6common13property_list13StringElement11m_type_nameE
Library: ScePafCommon variable: _ZTVN3paf6common13property_list13StringElementE
Library: ScePafCommon variable: _ZN3paf6common13property_list13StringElement14s_empty_stringE
Library: ScePafCommon variable: _ZN3paf6common13property_list14WStringElement11m_type_nameE
Library: ScePafCommon variable: _ZTVN3paf6common13property_list14WStringElementE
Library: ScePafCommon variable: _ZN3paf6common13property_list14WStringElement14s_empty_stringE
Library: ScePafCommon variable: _ZTVN3paf14ViewControllerE