emd: 1

Library: ScePafGraphics attr: auto_export
Library: ScePafGraphics version: 1
Library: ScePafGraphics stubfile: "libScePafGraphics_stub"
Library: ScePafGraphics nidsuffix: "PAF"
Library: ScePafGraphics libnamenid: 0xA070D6A7

Library: ScePafGraphics function: _ZN3paf5graph11SurfacePoolC1EPviPKcPKNS_6memory13HeapAllocator6OptionENS1_10MemoryTypeE
Library: ScePafGraphics function: _ZN3paf5graph11SurfacePoolC2EPviPKcPKNS_6memory13HeapAllocator6OptionENS1_10MemoryTypeE
Library: ScePafGraphics function: _ZN3paf5graph11SurfacePoolC1EPKNS1_6OptionE
Library: ScePafGraphics function: _ZN3paf5graph11SurfacePoolC2EPKNS1_6OptionE
Library: ScePafGraphics function: _ZN3paf5graph11SurfacePoolD0Ev
Library: ScePafGraphics function: _ZN3paf5graph11SurfacePoolD1Ev
Library: ScePafGraphics function: _ZN3paf5graph11SurfacePoolD2Ev
Library: ScePafGraphics function: _ZN3paf5graph11SurfacePool8AllocateEii
Library: ScePafGraphics function: _ZN3paf5graph11SurfacePool4FreeEPv
Library: ScePafGraphics function: _ZNK3paf5graph11SurfacePool11GetFreeSizeEv
Library: ScePafGraphics function: _ZN3paf5graph11SurfacePool8FindPoolEPKc
Library: ScePafGraphics function: _ZN3paf5graph11SurfacePool8GetIndexEPS1_
Library: ScePafGraphics function: _ZN3paf5graph11SurfacePool7GetPoolEi

Library: ScePafGraphics function: _ZN3paf8GraphMem12FreeOSMemoryENS0_10DeviceTypeEPv
Library: ScePafGraphics function: _ZN3paf8GraphMem13AllocOSMemoryENS0_10DeviceTypeEjPKcPNS0_6OptionE
Library: ScePafGraphics function: _ZN3paf8GraphMem4ExitEv
Library: ScePafGraphics function: _ZN3paf8GraphMem16SystemMemoryHeapEv
Library: ScePafGraphics function: _ZN3paf8GraphMem15VideoMemoryHeapEv

Library: ScePafGraphics function: _ZN3paf8GraphMem18GraphHeapAllocatorC1EPvjPKc
Library: ScePafGraphics function: _ZN3paf8GraphMem18GraphHeapAllocatorC2EPvjPKc
Library: ScePafGraphics function: _ZN3paf8GraphMem18GraphHeapAllocatorD1Ev
Library: ScePafGraphics function: _ZN3paf8GraphMem18GraphHeapAllocatorD0Ev
Library: ScePafGraphics function: _ZN3paf8GraphMem18GraphHeapAllocatorD2Ev

Library: ScePafGraphics function: _ZN3paf5graph7SurfaceD0Ev
Library: ScePafGraphics function: _ZN3paf5graph7SurfaceD1Ev
Library: ScePafGraphics function: _ZN3paf5graph7SurfaceD2Ev
Library: ScePafGraphics function: _ZN3paf5graph7Surface4LockEi
Library: ScePafGraphics function: _ZN3paf5graph7Surface6UnlockEv
Library: ScePafGraphics function: _ZN3paf5graph7Surface7ReleaseEv
Library: ScePafGraphics function: _ZN3paf5graph7SurfacedlEPv
Library: ScePafGraphics function: _ZN3paf5graph7SurfacenwEj
Library: ScePafGraphics function: _ZN3paf5graph7Surface6AddRefEv
Library: ScePafGraphics function: _ZN3paf5graph7Surface19GetRawTextureFormatEv
Library: ScePafGraphics function: _ZN3paf5graph7Surface14DelayedReleaseEv
Library: ScePafGraphics function: _ZN3paf5graph7Surface7TextureC2Ev
Library: ScePafGraphics function: _ZN3paf5graph7Surface7TextureD2Ev
Library: ScePafGraphics function: _ZN3paf5graph7Surface12SetMinFilterENS0_13TextureFilterE
Library: ScePafGraphics function: _ZN3paf5graph7Surface12SetMagFilterENS0_13TextureFilterE
Library: ScePafGraphics function: _ZN3paf5graph7Surface8SetWrapSENS0_11TextureWrapE
Library: ScePafGraphics function: _ZN3paf5graph7Surface8SetWrapTENS0_11TextureWrapE
Library: ScePafGraphics function: _ZN3paf5graph7Surface13GetCopyHeightEii
Library: ScePafGraphics function: _ZN3paf5graph7Surface10FastMemcpyEPvPKvi
Library: ScePafGraphics function: _ZN3paf5graph7Surface18ConvertTiledFormatEPvPKvii
Library: ScePafGraphics function: _ZN3paf5graph7Surface20ConvertSwizzleFormatEPvPKvii
Library: ScePafGraphics function: _ZNK3paf5graph7Surface8GetScoreEv
Library: ScePafGraphics function: _ZN3paf5graph7Surface8TexFlushEv
Library: ScePafGraphics function: _ZN3paf5graph7Surface10GenTextureEPNS1_7TextureEPv
Library: ScePafGraphics function: _ZN3paf5graph7Surface13Copy_YUV420PXEiPKv10ImageOrderii
Library: ScePafGraphics function: _ZNK3paf5graph7Surface10GetPagePtrEii
Library: ScePafGraphics function: _ZN3paf5graph7Surface10SetPaletteEPNS1_7TextureEPKv
Library: ScePafGraphics function: _ZN3paf5graph7Surface13DeleteTextureEv
Library: ScePafGraphics function: _ZN3paf5graph7Surface15ActivateTextureEjffff
Library: ScePafGraphics function: _ZN3paf5graph7Surface11SetMemParamEiss
Library: ScePafGraphics function: _ZN3paf5graph7Surface4CopyEPvPKv10ImageOrderi
Library: ScePafGraphics function: _ZN3paf5graph7Surface17DuplicateBoundaryEPh
Library: ScePafGraphics function: _ZN3paf5graph7Surface10SetMemAttrEv
Library: ScePafGraphics function: _ZN3paf5graph7Surface12CreateMipmapEv
Library: ScePafGraphics function: _ZNK3paf5graph7Surface9GetStrideEi
Library: ScePafGraphics function: _ZN3paf5graph7Surface13GetRawTextureEv
Library: ScePafGraphics function: _ZN3paf5graph7Surface4SwapEv
Library: ScePafGraphics function: _ZN3paf5graph7Surface10BeginSceneEv
Library: ScePafGraphics function: _ZN3paf5graph7Surface8EndSceneEv
Library: ScePafGraphics function: _ZNK3paf5graph7Surface10GetPagePtrEi
Library: ScePafGraphics function: _ZN3paf5graph7Surface4CopyEiRKNS_13intrusive_ptrIS1_EEi
Library: ScePafGraphics function: _ZN3paf5graph7Surface11FillPaddingEiPKvi
Library: ScePafGraphics function: _ZN3paf5graph7Surface7TextureD1Ev
Library: ScePafGraphics function: _ZN3paf5graph7Surface10FreeMemoryEv
Library: ScePafGraphics function: _ZN3paf5graph7Surface6ResizeEii
Library: ScePafGraphics function: _ZN3paf5graph7Surface10GetLodBiasEv
Library: ScePafGraphics function: _ZN3paf5graph7Surface10SetLodBiasEj
Library: ScePafGraphics function: _ZN3paf5graph7Surface12SetSymmetryUEb
Library: ScePafGraphics function: _ZN3paf5graph7Surface12SetSymmetryVEb
Library: ScePafGraphics function: _ZN3paf5graph7Surface24IsAllocatableSurfacePoolEPNS0_11SurfacePoolEjj
Library: ScePafGraphics function: _ZN3paf5graph7Surface12GetPageIndexENS0_15FrameBufferTypeEPi
Library: ScePafGraphics function: _ZN3paf5graph7Surface10GenTextureEv
Library: ScePafGraphics function: _ZN3paf5graph7Surface21DeactivateSurfacePoolEPNS0_11SurfacePoolE
Library: ScePafGraphics function: _ZN3paf5graph7Surface9FloorLog2Ei
Library: ScePafGraphics function: _ZN3paf5graph7Surface10AttachCLUTERKNS_13intrusive_ptrINS0_11SurfaceCLUTEEE
Library: ScePafGraphics function: _ZN3paf5graph7Surface5Copy_EiPKv10ImageOrderii
Library: ScePafGraphics function: _ZN3paf5graph7Surface4CopyEiPKv10ImageOrderii
Library: ScePafGraphics function: _ZN3paf5graph7Surface13GenTextureAllEv
Library: ScePafGraphics function: _ZN3paf5graph7Surface7TextureC1Ev
Library: ScePafGraphics function: _ZN3paf5graph7Surface15GetAdjustHeightEPNS0_11SurfacePoolEi
Library: ScePafGraphics function: _ZN3paf5graph7Surface14GetAdjustWidthEPNS0_11SurfacePoolEi
Library: ScePafGraphics function: _ZN3paf5graph7Surface7InitObjEi
Library: ScePafGraphics function: _ZN3paf5graph7Surface10InitializeEPNS0_11SurfacePoolEii9ImageMode10ImageOrderNS1_11SurfaceTypeEii
Library: ScePafGraphics function: _ZN3paf5graph7Surface20SetDecodeImageOptionEPNS0_11SurfacePoolEPNS1_10LoadOptionERNS_13intrusive_ptrIS1_EENS_6common9SharedPtrINS_5image5ImageEEE
Library: ScePafGraphics function: _ZN3paf5graph7Surface11DecodeImageEPNS0_11SurfacePoolEPNS1_10LoadOptionERNS_13intrusive_ptrIS1_EENS_6common9SharedPtrINS_5image5ImageEEE
Library: ScePafGraphics function: _ZN3paf5graph7Surface11DecodeImageEPNS0_11SurfacePoolEPNS1_10LoadOptionERNS_13intrusive_ptrIS1_EEPvj
Library: ScePafGraphics function: _ZN3paf5graph7Surface4LoadEPNS0_11SurfacePoolENS_6common9SharedPtrINS_4FileEEEPNS1_10LoadOptionE
Library: ScePafGraphics function: _ZN3paf5graph7Surface4LoadEPNS0_11SurfacePoolEPvxPNS1_10LoadOptionE
Library: ScePafGraphics function: _ZN3paf5graph7Surface10InitializeEii9ImageMode10ImageOrderNS1_11SurfaceTypeEiPvii
Library: ScePafGraphics function: _ZN3paf5graph7Surface4GetNEj
Library: ScePafGraphics function: _ZN3paf5graph7Surface10InitializeEPNS0_11SurfacePoolEii9ImageMode10ImageOrderNS1_11SurfaceTypeEiiiii
Library: ScePafGraphics function: _ZN3paf5graph7Surface10DetachCLUTEv
Library: ScePafGraphics function: _ZN3paf5graph7Surface7ReorderEv
Library: ScePafGraphics function: _ZN3paf5graph7Surface9TexturizeEjffff
Library: ScePafGraphics function: _ZN3paf5graph7Surface12ActivatePageEi
Library: ScePafGraphics function: _ZN3paf5graph7SurfaceC1EPNS0_11SurfacePoolEii9ImageMode10ImageOrderiib
Library: ScePafGraphics function: _ZN3paf5graph7SurfaceC1Eii9ImageMode10ImageOrderiPviib
Library: ScePafGraphics function: _ZN3paf5graph7SurfaceC1EPNS0_11SurfacePoolEii9ImageMode10ImageOrderiiiib
Library: ScePafGraphics function: _ZN3paf5graph7SurfaceC2EPNS0_11SurfacePoolEii9ImageMode10ImageOrderiib
Library: ScePafGraphics function: _ZN3paf5graph7SurfaceC2Eii9ImageMode10ImageOrderiPviib
Library: ScePafGraphics function: _ZN3paf5graph7SurfaceC2EPNS0_11SurfacePoolEii9ImageMode10ImageOrderiiiib

Library: ScePafGraphics function: _ZN3paf5graph11SurfaceCLUT7ReleaseEv
Library: ScePafGraphics function: _ZN3paf5graph11SurfaceCLUT6AddRefEv
Library: ScePafGraphics function: _ZN3paf5graph11SurfaceCLUTC1EPNS0_11SurfacePoolE9ImageModei
Library: ScePafGraphics function: _ZN3paf5graph11SurfaceCLUTnwEj
Library: ScePafGraphics function: _ZN3paf5graph11SurfaceCLUTC1E9ImageModePvi
Library: ScePafGraphics function: _ZN3paf5graph11SurfaceCLUTC2E9ImageModePvi
Library: ScePafGraphics function: _ZN3paf5graph11SurfaceCLUTC2EPNS0_11SurfacePoolE9ImageModei
Library: ScePafGraphics function: _ZN3paf5graph11SurfaceCLUTdlEPv
Library: ScePafGraphics function: _ZN3paf5graph11SurfaceCLUT21DeactivateSurfacePoolEPNS0_11SurfacePoolE
Library: ScePafGraphics function: _ZN3paf5graph11SurfaceCLUTD1Ev
Library: ScePafGraphics function: _ZN3paf5graph11SurfaceCLUTD0Ev
Library: ScePafGraphics function: _ZN3paf5graph11SurfaceCLUTD2Ev
Library: ScePafGraphics function: _ZN3paf5graph11SurfaceCLUT12ActivateCLUTEv
Library: ScePafGraphics function: _ZNK3paf5graph11SurfaceCLUT11GetCLUTSizeEv

Library: ScePafGraphics function: _ZN3paf5graph13ScreenSurface24ConvertColorSurfaceOrderE10ImageOrder
Library: ScePafGraphics function: _ZN3paf5graph13ScreenSurface20GetColorSurfaceOrderEv
Library: ScePafGraphics function: _ZN3paf5graph13ScreenSurface25ConvertColorSurfaceFormatE9ImageMode
Library: ScePafGraphics function: _ZN3paf5graph13ScreenSurface21GetColorSurfaceFormatEv
Library: ScePafGraphics function: _ZN3paf5graph13ScreenSurface16InitColorSurfaceEv
Library: ScePafGraphics function: _ZN3paf5graph13ScreenSurface13GetRawContextEv
Library: ScePafGraphics function: _ZN3paf5graph13ScreenSurface4SwapEv
Library: ScePafGraphics function: _ZN3paf5graph13ScreenSurface10GenTextureEv
Library: ScePafGraphics function: _ZN3paf5graph13ScreenSurface13SetRawContextEP13SceGxmContext
Library: ScePafGraphics function: _ZN3paf5graph13ScreenSurface18GetRawColorSurfaceEi
Library: ScePafGraphics function: _ZN3paf5graph13ScreenSurfaceC1Eii9ImageMode10ImageOrderiS2_S3_PvNS0_7Surface11SurfaceTypeE
Library: ScePafGraphics function: _ZN3paf5graph13ScreenSurfaceC2Eii9ImageMode10ImageOrderiS2_S3_PvNS0_7Surface11SurfaceTypeE
Library: ScePafGraphics function: _ZN3paf5graph13ScreenSurfaceC1EPNS0_11SurfacePoolEii9ImageMode10ImageOrderiS4_S5_NS0_7Surface11SurfaceTypeE
Library: ScePafGraphics function: _ZN3paf5graph13ScreenSurfaceC2EPNS0_11SurfacePoolEii9ImageMode10ImageOrderiS4_S5_NS0_7Surface11SurfaceTypeE
Library: ScePafGraphics function: _ZN3paf5graph13ScreenSurfaceD1Ev
Library: ScePafGraphics function: _ZN3paf5graph13ScreenSurfaceD0Ev
Library: ScePafGraphics function: _ZN3paf5graph13ScreenSurfaceD2Ev
Library: ScePafGraphics function: _ZN3paf5graph13ScreenSurface18ConvertDepthFormatE9ImageMode
Library: ScePafGraphics function: _ZN3paf5graph13ScreenSurface14GetDepthFormatEv
Library: ScePafGraphics function: _ZN3paf5graph13ScreenSurface16InitDepthSurfaceEv
Library: ScePafGraphics function: _ZN3paf5graph13ScreenSurface12GetDepthSizeEii9ImageMode10ImageOrder

Library: ScePafGraphics function: _ZN3paf5graph14DisplaySurface13GetOutputPortEv
Library: ScePafGraphics function: _ZN3paf5graph14DisplaySurface4SwapEv
Library: ScePafGraphics function: _ZN3paf5graph14DisplaySurface15displayCallbackEPKv
Library: ScePafGraphics function: _ZN3paf5graph14DisplaySurface7GetFbIdEv
Library: ScePafGraphics function: _ZN3paf5graph14DisplaySurface18SetFrameBufferModeENS_5gutil15FrameBufferModeE
Library: ScePafGraphics function: _ZN3paf5graph14DisplaySurface18ReleaseFrameBufferENS_5gutil15FrameBufferModeE
Library: ScePafGraphics function: _ZN3paf5graph14DisplaySurfaceD1Ev
Library: ScePafGraphics function: _ZN3paf5graph14DisplaySurfaceD0Ev
Library: ScePafGraphics function: _ZN3paf5graph14DisplaySurfaceD2Ev

Library: ScePafGraphics function: _ZN3paf5gutil5debug7DevTermEv
Library: ScePafGraphics function: _ZN3paf5gutil5debug4TermERNS0_9InitParamE
Library: ScePafGraphics function: _ZN3paf5gutil5debug4InitEii
Library: ScePafGraphics function: _ZN3paf5gutil5debug15AddDebugGuiFuncEPFvPvES2_
Library: ScePafGraphics function: _ZN3paf5gutil5debug18RemoveDebugGuiFuncEPFvPvES2_
Library: ScePafGraphics function: _ZN3paf5gutil5debug19RemoveDebugGuiFuncsEPFvPvE
Library: ScePafGraphics function: _ZN3paf5gutil5debug17CallDebugGuiFuncsEv
Library: ScePafGraphics function: _ZN3paf5gutil5debug10InitWindowEiiPv
Library: ScePafGraphics function: _ZN3paf5gutil5debug7DevInitEiiPv
Library: ScePafGraphics function: _ZN3paf5gutil5debug14WaitDummyVSyncEv

Library: ScePafGraphics function: _ZN3paf5gutil7DevTermEv
Library: ScePafGraphics function: _ZN3paf5gutil16GetDefaultShaderEv
Library: ScePafGraphics function: _ZN3paf5gutil21GetDefaultSurfacePoolEv
Library: ScePafGraphics function: _ZN3paf5gutil4SwapENS0_9WinHandleE
Library: ScePafGraphics function: _ZN3paf5gutil4TermEv

Library: ScePafGraphics function: _ZN3paf5graph3arl11ArlInstance8CullModeENS1_12CullModeEnumE
Library: ScePafGraphics function: _ZN3paf5graph3arl11ArlInstance9BlendFuncENS1_14BlendingFactorES3_S3_S3_
Library: ScePafGraphics function: _ZN3paf5graph3arl11ArlInstance13BlendEquationENS1_17BlendEquationEnumES3_
Library: ScePafGraphics function: _ZN3paf5graph3arl11ArlInstance5ColorENS_4math2v4E
Library: ScePafGraphics function: _ZN3paf5graph3arl11ArlInstance9PointSizeEfNS1_8FaceEnumE
Library: ScePafGraphics function: _ZN3paf5graph3arl11ArlInstance9LineWidthEfNS1_8FaceEnumE
Library: ScePafGraphics function: _ZN3paf5graph3arl11ArlInstanceC1Ev
Library: ScePafGraphics function: _ZN3paf5graph3arl11ArlInstanceC2Ev
Library: ScePafGraphics function: _ZN3paf5graph3arl11ArlInstanceD1Ev
Library: ScePafGraphics function: _ZN3paf5graph3arl11ArlInstanceD2Ev
Library: ScePafGraphics function: _ZN3paf5graph3arl11ArlInstance12SetSceneDataENS_13intrusive_ptrINS0_7SurfaceEEE
Library: ScePafGraphics function: _ZN3paf5graph3arl11ArlInstance12SetSceneDataEPNS1_17FrameBufferObjectE
Library: ScePafGraphics function: _ZN3paf5graph3arl11ArlInstance5ClearEj
Library: ScePafGraphics function: _ZN3paf5graph3arl11ArlInstance10ClearColorENS_4math2v4E
Library: ScePafGraphics function: _ZN3paf5graph3arl11ArlInstance14CopyTexImage2DENS_6common9SharedPtrINS1_9Texture2DEEEiiijj
Library: ScePafGraphics function: _ZN3paf5graph3arl11ArlInstance19GetNotificationAddrEj
Library: ScePafGraphics function: _ZN3paf5graph3arl11ArlInstance11PolygonModeENS1_15PolygonModeEnumENS1_8FaceEnumE
Library: ScePafGraphics function: _ZN3paf5graph3arl11ArlInstance6EnableENS1_9EnableCapE
Library: ScePafGraphics function: _ZN3paf5graph3arl11ArlInstance7DisableENS1_9EnableCapE
Library: ScePafGraphics function: _ZN3paf5graph3arl11ArlInstance9DepthFuncENS1_13DepthFuncEnumENS1_8FaceEnumE
Library: ScePafGraphics function: _ZN3paf5graph3arl11ArlInstance9ColorMaskEbbbb
Library: ScePafGraphics function: _ZN3paf5graph3arl11ArlInstance9DepthMaskEbNS1_8FaceEnumE

Library: ScePafGraphics function: _ZN3paf5graph3arl13ShaderProgram18unregister_programEv
Library: ScePafGraphics function: _ZN3paf5graph3arl13ShaderProgram23findParameterBySemanticE23SceGxmParameterSemanticjb
Library: ScePafGraphics function: _ZN3paf5graph3arl13ShaderProgram16register_programERKNS_12basic_stringIcNS_11char_traitsIcEENS_9allocatorIcEEEENS_6common9SharedPtrINS1_13ShaderPatcherEEE
Library: ScePafGraphics function: _ZN3paf5graph3arl13ShaderProgram18loadBinaryFromDiskERKNS_12basic_stringIcNS_11char_traitsIcEENS_9allocatorIcEEEENS_6common9SharedPtrINS1_13ShaderPatcherEEE
Library: ScePafGraphics function: _ZN3paf5graph3arl13ShaderProgram18loadBinaryEmbeddedERKNS_12basic_stringIcNS_11char_traitsIcEENS_9allocatorIcEEEENS_6common9SharedPtrINS1_13ShaderPatcherEEEPKhj
Library: ScePafGraphics function: _ZN3paf5graph3arl13ShaderProgram9get_paramEPKc23SceGxmParameterCategoryb
Library: ScePafGraphics function: _ZN3paf5graph3arl13ShaderProgram15getUniformParamEPKc
Library: ScePafGraphics function: _ZN3paf5graph3arl13ShaderProgram15getSamplerParamEPKc
Library: ScePafGraphics function: _ZN3paf5graph3arl13ShaderProgram15get_param_indexEPKc23SceGxmParameterCategoryb
Library: ScePafGraphics function: _ZN3paf5graph3arl13ShaderProgram20getSamplerParamIndexEPKc

Library: ScePafGraphics function: _ZN3paf5graph3arl16VertShaderObjectC1EPNS1_19ShaderInterfaceBaseE
Library: ScePafGraphics function: _ZN3paf5graph3arl16VertShaderObjectC2EPNS1_19ShaderInterfaceBaseE
Library: ScePafGraphics function: _ZN3paf5graph3arl16VertShaderObject4initERNS1_11ArlInstanceENS_6common9SharedPtrINS1_13ShaderPatcherEEENS6_INS1_15VertexArraySpecEEESA_SA_SA_
Library: ScePafGraphics function: _ZN3paf5graph3arl16VertShaderObjectD0Ev
Library: ScePafGraphics function: _ZN3paf5graph3arl16VertShaderObject8get_progEv
Library: ScePafGraphics function: _ZN3paf5graph3arl16VertShaderObject5beginEv
Library: ScePafGraphics function: _ZN3paf5graph3arl16VertShaderObject3endEv
Library: ScePafGraphics function: _ZN3paf5graph3arl16VertShaderObjectD1Ev
Library: ScePafGraphics function: _ZN3paf5graph3arl16VertShaderObjectD2Ev

Library: ScePafGraphics function: _ZN3paf5graph3arl16FragShaderObjectD0Ev
Library: ScePafGraphics function: _ZN3paf5graph3arl16FragShaderObjectC1EPNS1_19ShaderInterfaceBaseE
Library: ScePafGraphics function: _ZN3paf5graph3arl16FragShaderObjectC2EPNS1_19ShaderInterfaceBaseE
Library: ScePafGraphics function: _ZN3paf5graph3arl16FragShaderObject4initERNS1_11ArlInstanceENS_6common9SharedPtrINS1_13ShaderPatcherEEE
Library: ScePafGraphics function: _ZN3paf5graph3arl16FragShaderObject8get_progEPNS1_11VertProgramE
Library: ScePafGraphics function: _ZN3paf5graph3arl16FragShaderObject5beginEv
Library: ScePafGraphics function: _ZN3paf5graph3arl16FragShaderObject3endEv
Library: ScePafGraphics function: _ZN3paf5graph3arl16FragShaderObjectD1Ev
Library: ScePafGraphics function: _ZN3paf5graph3arl16FragShaderObjectD2Ev

Library: ScePafGraphics function: _ZN3paf5graph3arl19ShaderParameterBaseC1ERNS1_24ShaderParameterSetupDataE
Library: ScePafGraphics function: _ZN3paf5graph3arl19ShaderParameterBaseC2ERNS1_24ShaderParameterSetupDataE
Library: ScePafGraphics function: _ZN3paf5graph3arl19ShaderParameterBase4initEPKcii

Library: ScePafGraphics function: _ZN3paf5graph3arl20FragCreateDependencyC1Ev
Library: ScePafGraphics function: _ZN3paf5graph3arl20FragCreateDependencyC2Ev
Library: ScePafGraphics function: _ZN3paf5graph3arl20FragCreateDependency13createProgramERP21SceGxmFragmentProgram

Library: ScePafGraphics function: _ZN3paf5graph3arl20VertCreateDependencyC1Ev
Library: ScePafGraphics function: _ZN3paf5graph3arl20VertCreateDependencyC2Ev
Library: ScePafGraphics function: _ZN3paf5graph3arl20VertCreateDependency15setVertexFormatENS_6common9SharedPtrINS1_15VertexArraySpecEEES6_S6_S6_
Library: ScePafGraphics function: _ZN3paf5graph3arl20VertCreateDependency13createProgramERP19SceGxmVertexProgram

Library: ScePafGraphics function: _ZN3paf5graph3arl13TextureObject8setWrapSENS1_11TextureWrapE
Library: ScePafGraphics function: _ZN3paf5graph3arl13TextureObject8setWrapTENS1_11TextureWrapE

Library: ScePafGraphics function: _ZN3paf5graph3arl9Texture2DC1ENS_6common9SharedPtrINS1_13VramAllocatorEEE
Library: ScePafGraphics function: _ZN3paf5graph3arl9Texture2DC2ENS_6common9SharedPtrINS1_13VramAllocatorEEE

Library: ScePafGraphics function: _ZN3paf5graph3arl11VertexArray10DrawArraysERNS1_11ArlInstanceENS1_9PrimitiveEij
Library: ScePafGraphics function: _ZN3paf5graph3arl10IndexArray4drawERNS1_11ArlInstanceENS1_9PrimitiveEj
Library: ScePafGraphics function: _ZN3paf5graph3arl15VertexArraySpec10attribInfoENS2_10PredefinedEt
Library: ScePafGraphics function: _ZN3paf5graph3arl25GetTemporaryInitCheckFlagEv
Library: ScePafGraphics function: _ZN3paf5graph3arl2GlEv

Library: ScePafGraphics function: _ZNK3paf5graph7DrawObj9IsInheritEPKc
Library: ScePafGraphics function: _ZNK3paf5graph7DrawObj14GetDrawObjTypeEv
Library: ScePafGraphics function: _ZN3paf5graph7DrawObj11DrawObjTypeEv
Library: ScePafGraphics function: _ZN3paf5graph7DrawObjC1ERKNS0_9DrawStyleE
Library: ScePafGraphics function: _ZN3paf5graph7DrawObjC2ERKNS0_9DrawStyleE
Library: ScePafGraphics function: _ZN3paf5graph7DrawObjD1Ev
Library: ScePafGraphics function: _ZN3paf5graph7DrawObjD0Ev
Library: ScePafGraphics function: _ZN3paf5graph7DrawObjD2Ev
Library: ScePafGraphics function: _ZN3paf5graph7DrawObj11EnterSafetyEv
Library: ScePafGraphics function: _ZN3paf5graph7DrawObj12FinishSafetyEv
Library: ScePafGraphics function: _ZN3paf5graph7DrawObj13SetDirtyCountEj
Library: ScePafGraphics function: _ZN3paf5graph7DrawObj13BindDrawStyleEv
Library: ScePafGraphics function: _ZN3paf5graph9DrawCallsEv
Library: ScePafGraphics function: _ZN3paf5graph7DrawObj6SetRotENS_4math2v3E
Library: ScePafGraphics function: _ZN3paf5graph7DrawObj9SetShaderERKNS_6common9SharedPtrINS0_6ShaderEEE

Library: ScePafGraphics function: _ZNK3paf5graph8PlaneObj9IsInheritEPKc
Library: ScePafGraphics function: _ZNK3paf5graph8PlaneObj14GetDrawObjTypeEv
Library: ScePafGraphics function: _ZN3paf5graph8PlaneObj11DrawObjTypeEv
Library: ScePafGraphics function: _ZN3paf5graph8PlaneObjC1ERKNS0_9DrawStyleE
Library: ScePafGraphics function: _ZN3paf5graph8PlaneObjC2ERKNS0_9DrawStyleE
Library: ScePafGraphics function: _ZN3paf5graph8PlaneObj25UpdateDivVerticesTexcoordEv
Library: ScePafGraphics function: _ZN3paf5graph8PlaneObjD1Ev
Library: ScePafGraphics function: _ZN3paf5graph8PlaneObjD0Ev
Library: ScePafGraphics function: _ZN3paf5graph8PlaneObjD2Ev
Library: ScePafGraphics function: _ZN3paf5graph8PlaneObj6UpdateEv
Library: ScePafGraphics function: _ZN3paf5graph8PlaneObj12DrawCallbackERKNS0_7DrawObj15DrawCallbackArgE
Library: ScePafGraphics function: _ZN3paf5graph8PlaneObj10SetTextureERKNS_13intrusive_ptrINS0_7SurfaceEEEj
Library: ScePafGraphics function: _ZN3paf5graph8PlaneObj10GetTextureERNS_13intrusive_ptrINS0_7SurfaceEEEj
Library: ScePafGraphics function: _ZN3paf5graph8PlaneObj6SetPosENS_4math2v3E
Library: ScePafGraphics function: _ZN3paf5graph8PlaneObj7SetSizeENS_4math2v3E
Library: ScePafGraphics function: _ZN3paf5graph8PlaneObj12SetTexRegionERKNS_4math2v4E
Library: ScePafGraphics function: _ZN3paf5graph8PlaneObj12SetMinFilterENS0_13TextureFilterEj
Library: ScePafGraphics function: _ZN3paf5graph8PlaneObj12SetMagFilterENS0_13TextureFilterEj
Library: ScePafGraphics function: _ZN3paf5graph8PlaneObj8SetWrapSENS0_11TextureWrapEj
Library: ScePafGraphics function: _ZN3paf5graph8PlaneObj8SetWrapTENS0_11TextureWrapEj
Library: ScePafGraphics function: _ZN3paf5graph8PlaneObj12GetMinFilterEj
Library: ScePafGraphics function: _ZN3paf5graph8PlaneObj12GetMagFilterEj
Library: ScePafGraphics function: _ZN3paf5graph8PlaneObj8GetWrapSEj
Library: ScePafGraphics function: _ZN3paf5graph8PlaneObj8GetWrapTEj
Library: ScePafGraphics function: _ZN3paf5graph8PlaneObj8SetAlignENS1_9AlignModeES2_
Library: ScePafGraphics function: _ZN3paf5graph8PlaneObj12SetScaleModeENS1_9ScaleModeES2_
Library: ScePafGraphics function: _ZN3paf5graph8PlaneObj13SetScaleValueERKNS_4math2v3E
Library: ScePafGraphics function: _ZN3paf5graph8PlaneObj17SetDivBorderScaleEf
Library: ScePafGraphics function: _ZN3paf5graph8PlaneObj12UpdateLayoutEv
Library: ScePafGraphics function: _ZN3paf5graph8PlaneObj25UpdateDivVerticesPositionEv

Library: ScePafGraphics function: _ZNK3paf5graph13PlaneObjParam12GetParamNameEv
Library: ScePafGraphics function: _ZN3paf5graph13PlaneObjParam9ParamNameEv
Library: ScePafGraphics function: _ZN3paf5graph13PlaneObjParamC1Ev
Library: ScePafGraphics function: _ZN3paf5graph13PlaneObjParamC2Ev
Library: ScePafGraphics function: _ZN3paf5graph13PlaneObjParamD1Ev
Library: ScePafGraphics function: _ZN3paf5graph13PlaneObjParamD0Ev
Library: ScePafGraphics function: _ZN3paf5graph13PlaneObjParamD2Ev
Library: ScePafGraphics function: _ZN3paf5graph13PlaneObjParam6CreateEi
Library: ScePafGraphics function: _ZN3paf5graph13PlaneObjParam7SetEachEPNS0_7DrawObjE
Library: ScePafGraphics function: _ZN3paf5graph13PlaneObjParam7GetEachEPNS0_7DrawObjE

Library: ScePafGraphics function: _ZNK3paf5graph7TextObj9IsInheritEPKc
Library: ScePafGraphics function: _ZNK3paf5graph7TextObj14GetDrawObjTypeEv
Library: ScePafGraphics function: _ZN3paf5graph7TextObj11DrawObjTypeEv
Library: ScePafGraphics function: _ZN3paf5graph7TextObjC1ERKNS0_9DrawStyleE
Library: ScePafGraphics function: _ZN3paf5graph7TextObjC2ERKNS0_9DrawStyleE
Library: ScePafGraphics function: _ZN3paf5graph7TextObjD1Ev
Library: ScePafGraphics function: _ZN3paf5graph7TextObjD0Ev
Library: ScePafGraphics function: _ZN3paf5graph7TextObjD2Ev
Library: ScePafGraphics function: _ZN3paf5graph7TextObj6UpdateEv
Library: ScePafGraphics function: _ZN3paf5graph7TextObj10UpdatePostERKNS_4math6matrixE
Library: ScePafGraphics function: _ZN3paf5graph7TextObj7SetSizeENS_4math2v3E
Library: ScePafGraphics function: _ZN3paf5graph7TextObj12DrawCallbackERKNS0_7DrawObj15DrawCallbackArgE
Library: ScePafGraphics function: _ZN3paf5graph7TextObj18SetLayoutAttributeENS0_19TextLayoutAttributeEi
Library: ScePafGraphics function: _ZN3paf5graph7TextObj18GetLayoutAttributeENS0_19TextLayoutAttributeERi
Library: ScePafGraphics function: _ZN3paf5graph7TextObj18SetLayoutAttributeENS0_19TextLayoutAttributeEf
Library: ScePafGraphics function: _ZN3paf5graph7TextObj18GetLayoutAttributeENS0_19TextLayoutAttributeERf
Library: ScePafGraphics function: _ZN3paf5graph7TextObj18SetLayoutAttributeENS0_19TextLayoutAttributeERKNS_4math2v2E
Library: ScePafGraphics function: _ZN3paf5graph7TextObj18GetLayoutAttributeENS0_19TextLayoutAttributeERNS_4math2v2E
Library: ScePafGraphics function: _ZN3paf5graph7TextObj18SetLayoutAttributeENS0_19TextLayoutAttributeEb
Library: ScePafGraphics function: _ZN3paf5graph7TextObj15SetSelectionPosERKNS_4math2v2ES5_
Library: ScePafGraphics function: _ZN3paf5graph7TextObj13SetCaretIndexEj
Library: ScePafGraphics function: _ZN3paf5graph7TextObj13GetCaretIndexERj
Library: ScePafGraphics function: _ZN3paf5graph7TextObj17SetSelectionRangeEjj
Library: ScePafGraphics function: _ZN3paf5graph7TextObj17GetSelectionRangeERjS2_
Library: ScePafGraphics function: _ZN3paf5graph7TextObj15SetCaretVisibleEb
Library: ScePafGraphics function: _ZN3paf5graph7TextObj15GetCaretVisibleERb
Library: ScePafGraphics function: _ZN3paf5graph7TextObj13SetCaretColorERKNS_4math2v4E
Library: ScePafGraphics function: _ZN3paf5graph7TextObj13GetCaretColorERNS_4math2v4E
Library: ScePafGraphics function: _ZN3paf5graph7TextObj17SetSelectionColorERKNS_4math2v4E
Library: ScePafGraphics function: _ZN3paf5graph7TextObj17GetSelectionColorERNS_4math2v4E
Library: ScePafGraphics function: _ZN3paf5graph7TextObj10InvalidateEv
Library: ScePafGraphics function: _ZN3paf5graph7TextObj18GetLayoutAttributeENS0_19TextLayoutAttributeERb
Library: ScePafGraphics function: _ZN3paf5graph7TextObj17SetStyleAttributeENS0_18TextStyleAttributeEjji
Library: ScePafGraphics function: _ZN3paf5graph7TextObj17GetStyleAttributeENS0_18TextStyleAttributeEjRi
Library: ScePafGraphics function: _ZN3paf5graph7TextObj17SetStyleAttributeENS0_18TextStyleAttributeEjjf
Library: ScePafGraphics function: _ZN3paf5graph7TextObj17GetStyleAttributeENS0_18TextStyleAttributeEjRf
Library: ScePafGraphics function: _ZN3paf5graph7TextObj17SetStyleAttributeENS0_18TextStyleAttributeEjjRKNS_4math2v4E
Library: ScePafGraphics function: _ZN3paf5graph7TextObj17GetStyleAttributeENS0_18TextStyleAttributeEjRNS_4math2v4E
Library: ScePafGraphics function: _ZN3paf5graph7TextObj17SetStyleAttributeENS0_18TextStyleAttributeEjjb
Library: ScePafGraphics function: _ZN3paf5graph7TextObj17GetStyleAttributeENS0_18TextStyleAttributeEjRb
Library: ScePafGraphics function: _ZN3paf5graph7TextObj8SetStyleEjjRKNS0_9TextStyleE
Library: ScePafGraphics function: _ZN3paf5graph7TextObj8GetStyleEjRNS0_9TextStyleE
Library: ScePafGraphics function: _ZN3paf5graph7TextObj9SetStringERKNS_12basic_stringIwNS_11char_traitsIwEENS_9allocatorIwEEEE
Library: ScePafGraphics function: _ZN3paf5graph7TextObj9GetStringERNS_12basic_stringIwNS_11char_traitsIwEENS_9allocatorIwEEEE
Library: ScePafGraphics function: _ZN3paf5graph7TextObj9GetLengthERj
Library: ScePafGraphics function: _ZN3paf5graph7TextObj19SetAttributedStringERKNS0_16AttributedStringE
Library: ScePafGraphics function: _ZN3paf5graph7TextObj19GetAttributedStringERNS0_16AttributedStringE
Library: ScePafGraphics function: _ZN3paf5graph7TextObj9GetBoundsERNS_4math2v2E
Library: ScePafGraphics function: _ZN3paf5graph7TextObj12GetLineCountERj
Library: ScePafGraphics function: _ZN3paf5graph7TextObj10SetCharPosEjRKNS_4math2v2E
Library: ScePafGraphics function: _ZN3paf5graph7TextObj11GetCharInfoEjRNS0_18TextLayoutCharInfoE
Library: ScePafGraphics function: _ZN3paf5graph7TextObj11GetLineInfoEjRNS0_18TextLayoutLineInfoE
Library: ScePafGraphics function: _ZN3paf5graph7TextObj12GetNextUpHitEjRj
Library: ScePafGraphics function: _ZN3paf5graph7TextObj14GetNextDownHitEjRj
Library: ScePafGraphics function: _ZN3paf5graph7TextObj14GetNextLeftHitEjRj
Library: ScePafGraphics function: _ZN3paf5graph7TextObj15GetNextRightHitEjRj
Library: ScePafGraphics function: _ZN3paf5graph7TextObj11MoveCaretUpEv
Library: ScePafGraphics function: _ZN3paf5graph7TextObj13MoveCaretDownEv
Library: ScePafGraphics function: _ZN3paf5graph7TextObj13MoveCaretLeftEv
Library: ScePafGraphics function: _ZN3paf5graph7TextObj14MoveCaretRightEv
Library: ScePafGraphics function: _ZN3paf5graph7TextObj11SetCaretPosERKNS_4math2v2E
Library: ScePafGraphics function: _ZN3paf5graph7TextObj20SetPlaceholderStringERKNS_12basic_stringIwNS_11char_traitsIwEENS_9allocatorIwEEEE
Library: ScePafGraphics function: _ZN3paf5graph7TextObj20GetPlaceholderStringERNS_12basic_stringIwNS_11char_traitsIwEENS_9allocatorIwEEEE
Library: ScePafGraphics function: _ZN3paf5graph7TextObj15GetStringBufferERPKwRj

Library: ScePafGraphics function: _ZNK3paf5graph12TextObjParam12GetParamNameEv
Library: ScePafGraphics function: _ZN3paf5graph12TextObjParam9ParamNameEv
Library: ScePafGraphics function: _ZN3paf5graph12TextObjParamC1Ev
Library: ScePafGraphics function: _ZN3paf5graph12TextObjParamC2Ev
Library: ScePafGraphics function: _ZN3paf5graph12TextObjParamD1Ev
Library: ScePafGraphics function: _ZN3paf5graph12TextObjParamD0Ev
Library: ScePafGraphics function: _ZN3paf5graph12TextObjParamD2Ev
Library: ScePafGraphics function: _ZN3paf5graph12TextObjParam6CreateEi
Library: ScePafGraphics function: _ZN3paf5graph12TextObjParam7SetEachEPNS0_7DrawObjE
Library: ScePafGraphics function: _ZN3paf5graph12TextObjParam7GetEachEPNS0_7DrawObjE

Library: ScePafGraphics function: _ZN3paf5graph10TextLayout17GetSelectionRangeERjS2_
Library: ScePafGraphics function: _ZN3paf5graph10TextLayout8GetStateERi
Library: ScePafGraphics function: _ZN3paf5graph10TextLayout8SetStateEi
Library: ScePafGraphics function: _ZN3paf5graph10TextLayout10ClearStateEi
Library: ScePafGraphics function: _ZN3paf5graph10TextLayout10InvalidateEv
Library: ScePafGraphics function: _ZN3paf5graph10TextLayoutD1Ev
Library: ScePafGraphics function: _ZN3paf5graph10TextLayoutD0Ev
Library: ScePafGraphics function: _ZN3paf5graph10TextLayoutD2Ev
Library: ScePafGraphics function: _ZN3paf5graph10TextLayout18SetLayoutAttributeENS0_19TextLayoutAttributeEi
Library: ScePafGraphics function: _ZN3paf5graph10TextLayout18GetLayoutAttributeENS0_19TextLayoutAttributeERi
Library: ScePafGraphics function: _ZN3paf5graph10TextLayout18SetLayoutAttributeENS0_19TextLayoutAttributeEf
Library: ScePafGraphics function: _ZN3paf5graph10TextLayout18GetLayoutAttributeENS0_19TextLayoutAttributeERf
Library: ScePafGraphics function: _ZN3paf5graph10TextLayout18SetLayoutAttributeENS0_19TextLayoutAttributeERKNS_4math2v2E
Library: ScePafGraphics function: _ZN3paf5graph10TextLayout18GetLayoutAttributeENS0_19TextLayoutAttributeERNS_4math2v2E
Library: ScePafGraphics function: _ZN3paf5graph10TextLayout18SetLayoutAttributeENS0_19TextLayoutAttributeEb
Library: ScePafGraphics function: _ZN3paf5graph10TextLayout18GetLayoutAttributeENS0_19TextLayoutAttributeERb
Library: ScePafGraphics function: _ZN3paf5graph10TextLayout17SetStyleAttributeENS0_18TextStyleAttributeEjji
Library: ScePafGraphics function: _ZN3paf5graph10TextLayout17GetStyleAttributeENS0_18TextStyleAttributeEjRi
Library: ScePafGraphics function: _ZN3paf5graph10TextLayout17SetStyleAttributeENS0_18TextStyleAttributeEjjf
Library: ScePafGraphics function: _ZN3paf5graph10TextLayout17GetStyleAttributeENS0_18TextStyleAttributeEjRf
Library: ScePafGraphics function: _ZN3paf5graph10TextLayout17SetStyleAttributeENS0_18TextStyleAttributeEjjRKNS_4math2v4E
Library: ScePafGraphics function: _ZN3paf5graph10TextLayout17GetStyleAttributeENS0_18TextStyleAttributeEjRNS_4math2v4E
Library: ScePafGraphics function: _ZN3paf5graph10TextLayout17SetStyleAttributeENS0_18TextStyleAttributeEjjb
Library: ScePafGraphics function: _ZN3paf5graph10TextLayout17GetStyleAttributeENS0_18TextStyleAttributeEjRb
Library: ScePafGraphics function: _ZN3paf5graph10TextLayout8SetStyleEjjRKNS0_9TextStyleE
Library: ScePafGraphics function: _ZN3paf5graph10TextLayout8GetStyleEjRNS0_9TextStyleE
Library: ScePafGraphics function: _ZN3paf5graph10TextLayout9SetStringERKNS_12basic_stringIwNS_11char_traitsIwEENS_9allocatorIwEEEE
Library: ScePafGraphics function: _ZN3paf5graph10TextLayout9GetStringERNS_12basic_stringIwNS_11char_traitsIwEENS_9allocatorIwEEEE
Library: ScePafGraphics function: _ZN3paf5graph10TextLayout9GetLengthERj
Library: ScePafGraphics function: _ZN3paf5graph10TextLayout19SetAttributedStringERKNS0_16AttributedStringE
Library: ScePafGraphics function: _ZN3paf5graph10TextLayout19GetAttributedStringERNS0_16AttributedStringE
Library: ScePafGraphics function: _ZN3paf5graph10TextLayout6UpdateEPNS0_14FontRasterizerES3_PNS0_16TextSurfaceCacheE
Library: ScePafGraphics function: _ZN3paf5graph10TextLayout9GetBoundsERNS_4math2v2E
Library: ScePafGraphics function: _ZN3paf5graph10TextLayout12GetLineCountERj
Library: ScePafGraphics function: _ZN3paf5graph10TextLayout10SetCharPosEjRKNS_4math2v2E
Library: ScePafGraphics function: _ZN3paf5graph10TextLayout11GetCharInfoEjRNS0_18TextLayoutCharInfoE
Library: ScePafGraphics function: _ZN3paf5graph10TextLayout11GetLineInfoEjRNS0_18TextLayoutLineInfoE
Library: ScePafGraphics function: _ZN3paf5graph10TextLayout12GetNextUpHitEjRj
Library: ScePafGraphics function: _ZN3paf5graph10TextLayout14GetNextDownHitEjRj
Library: ScePafGraphics function: _ZN3paf5graph10TextLayout14GetNextLeftHitEjRj
Library: ScePafGraphics function: _ZN3paf5graph10TextLayout15GetNextRightHitEjRj
Library: ScePafGraphics function: _ZN3paf5graph10TextLayout11MoveCaretUpEv
Library: ScePafGraphics function: _ZN3paf5graph10TextLayout13MoveCaretDownEv
Library: ScePafGraphics function: _ZN3paf5graph10TextLayout13MoveCaretLeftEv
Library: ScePafGraphics function: _ZN3paf5graph10TextLayout14MoveCaretRightEv
Library: ScePafGraphics function: _ZN3paf5graph10TextLayout11SetCaretPosERKNS_4math2v2E
Library: ScePafGraphics function: _ZN3paf5graph10TextLayout15SetSelectionPosERKNS_4math2v2ES5_
Library: ScePafGraphics function: _ZN3paf5graph10TextLayout13SetCaretIndexEj
Library: ScePafGraphics function: _ZN3paf5graph10TextLayout13GetCaretIndexERj
Library: ScePafGraphics function: _ZN3paf5graph10TextLayout17SetSelectionRangeEjj

Library: ScePafGraphics function: _ZNK3paf5graph11SurfaceBase13PixelsToBytesEi

Library: ScePafGraphics function: _ZN3paf5graph16AttributedString9GetLengthERj
Library: ScePafGraphics function: _ZN3paf5graph16AttributedString15GetStringBufferERPKwRj
Library: ScePafGraphics function: _ZN3paf5graph16AttributedString12GetStyleRunsERNS_14_list_iteratorIPNS0_12TextStyleRunENS_9allocatorIS4_EEEES8_
Library: ScePafGraphics function: _ZN3paf5graph16AttributedStringC1Ev
Library: ScePafGraphics function: _ZN3paf5graph16AttributedStringC2Ev
Library: ScePafGraphics function: _ZN3paf5graph16AttributedStringC1ERKNS0_9TextStyleE
Library: ScePafGraphics function: _ZN3paf5graph16AttributedStringC2ERKNS0_9TextStyleE
Library: ScePafGraphics function: _ZN3paf5graph16AttributedStringC1ERKS1_
Library: ScePafGraphics function: _ZN3paf5graph16AttributedStringC2ERKS1_
Library: ScePafGraphics function: _ZN3paf5graph16AttributedStringD1Ev
Library: ScePafGraphics function: _ZN3paf5graph16AttributedStringD0Ev
Library: ScePafGraphics function: _ZN3paf5graph16AttributedStringD2Ev
Library: ScePafGraphics function: _ZN3paf5graph16AttributedStringaSERKS1_
Library: ScePafGraphics function: _ZN3paf5graph16AttributedString17SetStyleAttributeENS0_18TextStyleAttributeEjji
Library: ScePafGraphics function: _ZN3paf5graph16AttributedString17GetStyleAttributeENS0_18TextStyleAttributeEjRi
Library: ScePafGraphics function: _ZN3paf5graph16AttributedString17SetStyleAttributeENS0_18TextStyleAttributeEjjf
Library: ScePafGraphics function: _ZN3paf5graph16AttributedString17GetStyleAttributeENS0_18TextStyleAttributeEjRf
Library: ScePafGraphics function: _ZN3paf5graph16AttributedString17SetStyleAttributeENS0_18TextStyleAttributeEjjRKNS_4math2v4E
Library: ScePafGraphics function: _ZN3paf5graph16AttributedString17GetStyleAttributeENS0_18TextStyleAttributeEjRNS_4math2v4E
Library: ScePafGraphics function: _ZN3paf5graph16AttributedString17SetStyleAttributeENS0_18TextStyleAttributeEjjb
Library: ScePafGraphics function: _ZN3paf5graph16AttributedString17GetStyleAttributeENS0_18TextStyleAttributeEjRb
Library: ScePafGraphics function: _ZN3paf5graph16AttributedString8SetStyleEjjRKNS0_9TextStyleE
Library: ScePafGraphics function: _ZN3paf5graph16AttributedString8GetStyleEjRNS0_9TextStyleE
Library: ScePafGraphics function: _ZN3paf5graph16AttributedString9SetStringERKNS_12basic_stringIwNS_11char_traitsIwEENS_9allocatorIwEEEE
Library: ScePafGraphics function: _ZN3paf5graph16AttributedString9GetStringERNS_12basic_stringIwNS_11char_traitsIwEENS_9allocatorIwEEEE

Library: ScePafGraphics function: _ZN3paf5graph9TextStyleC1Ev
Library: ScePafGraphics function: _ZN3paf5graph9TextStyleC2Ev
Library: ScePafGraphics function: _ZN3paf5graph9TextStyleC1ERKS1_
Library: ScePafGraphics function: _ZN3paf5graph9TextStyleC2ERKS1_
Library: ScePafGraphics function: _ZN3paf5graph9TextStyleD1Ev
Library: ScePafGraphics function: _ZN3paf5graph9TextStyleD0Ev
Library: ScePafGraphics function: _ZN3paf5graph9TextStyleD2Ev
Library: ScePafGraphics function: _ZN3paf5graph9TextStyleaSERKS1_
Library: ScePafGraphics function: _ZN3paf5graph9TextStyleeqERKS1_
Library: ScePafGraphics function: _ZN3paf5graph9TextStyleneERKS1_
Library: ScePafGraphics function: _ZN3paf5graph9TextStyle17SetStyleAttributeENS0_18TextStyleAttributeEi
Library: ScePafGraphics function: _ZN3paf5graph9TextStyle17SetStyleAttributeENS0_18TextStyleAttributeEf
Library: ScePafGraphics function: _ZN3paf5graph9TextStyle17SetStyleAttributeENS0_18TextStyleAttributeERKNS_4math2v4E
Library: ScePafGraphics function: _ZN3paf5graph9TextStyle17SetStyleAttributeENS0_18TextStyleAttributeEb
Library: ScePafGraphics function: _ZNK3paf5graph9TextStyle17GetStyleAttributeENS0_18TextStyleAttributeERi
Library: ScePafGraphics function: _ZNK3paf5graph9TextStyle17GetStyleAttributeENS0_18TextStyleAttributeERf
Library: ScePafGraphics function: _ZNK3paf5graph9TextStyle17GetStyleAttributeENS0_18TextStyleAttributeERNS_4math2v4E
Library: ScePafGraphics function: _ZNK3paf5graph9TextStyle17GetStyleAttributeENS0_18TextStyleAttributeERb
Library: ScePafGraphics function: _ZN3paf5graph9TextStyle14EqualFontStyleERKS1_
Library: ScePafGraphics function: _ZN3paf5graph9TextStyle13EqualFontTypeERKS1_

Library: ScePafGraphics variable: _ZN3paf5graph11SurfacePool12m_list_mutexE
Library: ScePafGraphics variable: _ZN3paf5graph11SurfacePool11m_pool_listE
Library: ScePafGraphics variable: _ZTVN3paf8GraphMem18GraphHeapAllocatorE
Library: ScePafGraphics variable: _ZTVN3paf5graph7TextObjE
Library: ScePafGraphics variable: _ZTVN3paf5graph7DrawObjE
Library: ScePafGraphics variable: _ZTVN3paf5graph7SurfaceE
Library: ScePafGraphics variable: _ZTVN3paf5graph11SurfaceCLUTE
Library: ScePafGraphics variable: _ZN3paf5graph7Surface13m_active_markE
Library: ScePafGraphics variable: _ZN3paf5graph7Surface13m_initializedE
Library: ScePafGraphics variable: _ZN3paf5graph7Surface9m_list_csE
Library: ScePafGraphics variable: _ZN3paf5graph7Surface12m_lock_mutexE
Library: ScePafGraphics variable: _ZN3paf5graph7Surface14m_surface_listE
Library: ScePafGraphics variable: _ZN3paf5graph11SurfaceCLUT11m_clut_listE
Library: ScePafGraphics variable: _ZN3paf5graph11SurfaceCLUT12m_clut_mutexE
Library: ScePafGraphics variable: _ZTVN3paf5graph13ScreenSurfaceE
Library: ScePafGraphics variable: _ZTVN3paf5graph14DisplaySurfaceE
Library: ScePafGraphics variable: _ZN3paf5graph14DisplaySurface11s_offscreenE
Library: ScePafGraphics variable: _ZN3paf5graph7DrawObj14m_drawobj_typeE
Library: ScePafGraphics variable: _ZN3paf5graph8PlaneObj14m_drawobj_typeE
Library: ScePafGraphics variable: _ZN3paf5graph7TextObj14m_drawobj_typeE
Library: ScePafGraphics variable: _ZN3paf5graph7DrawObj13s_dirty_countE
Library: ScePafGraphics variable: _ZN3paf5graph7DrawObj8s_safetyE