emd: 1

Library: SceCommonGuiDialog attr: auto_export
Library: SceCommonGuiDialog version: 1
Library: SceCommonGuiDialog stubfile: "libSceCommonGuiDialog_stub"
Library: SceCommonGuiDialog nidsuffix: ""
Library: SceCommonGuiDialog libnamenid: 0x4B4AAE97
Library: SceCommonGuiDialog function: _ZN3sce15CommonGuiDialog6Dialog4ShowEPN3paf6PluginEPNS2_12basic_stringIwNS2_11char_traitsIwEENS2_9allocatorIwEEEESB_PNS0_5ParamEPFviNS0_10ButtonCodeEPvESF_ nidvalue: 0x6CE14F66
Library: SceCommonGuiDialog function: _ZN3sce15CommonGuiDialog6Dialog4ShowEPN3paf6PluginEPNS2_12basic_stringIwNS2_11char_traitsIwEENS2_9allocatorIwEEEESB_PNS0_5ParamEPNS0_13EventCallbackE nidvalue: 0xFA31832E
Library: SceCommonGuiDialog function: _ZN3sce15CommonGuiDialog6Dialog5CloseEi nidvalue: 0xBC311DC0
Library: SceCommonGuiDialog function: _ZN3sce15CommonGuiDialog6Dialog9GetWidgetEiNS0_10WidgetTypeE nidvalue: 0x8947FC23
Library: SceCommonGuiDialog function: _ZN3sce15CommonGuiDialog6Dialog14SetDimmerColorEiPN3paf4RgbaE nidvalue: 0x206623FF
Library: SceCommonGuiDialog function: _ZN3sce15CommonGuiDialog6Dialog17SetTitleTextColorEiPN3paf4RgbaE nidvalue: 0x2BBC4734
Library: SceCommonGuiDialog function: _ZN3sce15CommonGuiDialog6Dialog14SetDialogColorEiPN3paf4RgbaE nidvalue: 0x0C2B57DC
Library: SceCommonGuiDialog function: _ZN3sce15CommonGuiDialog6Dialog10SetTextureEiNS0_10WidgetTypeEPPN3paf5graph7SurfaceE nidvalue: 0x52AB228A

Library: SceCommonGuiDialog function: _ZN3sce15CommonGuiDialog11ErrorDialog4ShowEv nidvalue: 0x20B141F1

Library: SceCommonGuiDialog variable: _ZN3sce15CommonGuiDialog5Param10s_dialogOkE nidvalue: 0xAF75CA6D
Library: SceCommonGuiDialog variable: _ZN3sce15CommonGuiDialog5Param14s_dialogCancelE nidvalue: 0xEF7F04DD
Library: SceCommonGuiDialog variable: _ZN3sce15CommonGuiDialog5Param13s_dialogYesNoE nidvalue: 0x6CD802FC
Library: SceCommonGuiDialog variable: _ZN3sce15CommonGuiDialog5Param21s_dialogYesNoVerticalE nidvalue: 0x22B17F2B
Library: SceCommonGuiDialog variable: _ZN3sce15CommonGuiDialog5Param19s_dialogYesNoCancelE nidvalue: 0x78399261
Library: SceCommonGuiDialog variable: _ZN3sce15CommonGuiDialog5Param16s_dialogOkCancelE nidvalue: 0x92752DE2
Library: SceCommonGuiDialog variable: _ZN3sce15CommonGuiDialog5Param22s_dialogCancelProgressE nidvalue: 0x446F8B49
Library: SceCommonGuiDialog variable: _ZN3sce15CommonGuiDialog5Param23s_dialogCancelLProgressE nidvalue: 0x25BD4084
Library: SceCommonGuiDialog variable: _ZN3sce15CommonGuiDialog5Param28s_dialogCancelText2LProgressE nidvalue: 0x95087497
Library: SceCommonGuiDialog variable: _ZN3sce15CommonGuiDialog5Param18s_dialogCancelUnk1E nidvalue: 0xEA557911
Library: SceCommonGuiDialog variable: _ZN3sce15CommonGuiDialog5Param16s_dialogProgressE nidvalue: 0xA0E0A437
Library: SceCommonGuiDialog variable: _ZN3sce15CommonGuiDialog5Param12s_dialogTextE nidvalue: 0x7AEA192C
Library: SceCommonGuiDialog variable: _ZN3sce15CommonGuiDialog5Param17s_dialogTextSmallE nidvalue: 0x5C8A2999
Library: SceCommonGuiDialog variable: _ZN3sce15CommonGuiDialog5Param13s_dialogXViewE nidvalue: 0xE872FB5D
Library: SceCommonGuiDialog variable: _ZN3sce15CommonGuiDialog5Param14s_dialogOkViewE nidvalue: 0x1424609E
Library: SceCommonGuiDialog variable: _ZN3sce15CommonGuiDialog5Param17s_dialogYesNoViewE nidvalue: 0x3AC06BC6
Library: SceCommonGuiDialog variable: _ZN3sce15CommonGuiDialog5Param14s_dialogXLViewE nidvalue: 0xDDC59760
Library: SceCommonGuiDialog variable: _ZN3sce15CommonGuiDialog5Param15s_dialogOkLViewE nidvalue: 0x3785AD25
Library: SceCommonGuiDialog variable: _ZN3sce15CommonGuiDialog5Param21s_dialogTextSmallBusyE nidvalue: 0x2A68B4A4
Library: SceCommonGuiDialog variable: _ZN3sce15CommonGuiDialog5Param18s_dialogCancelBusyE nidvalue: 0xF8B2D7E1
Library: SceCommonGuiDialog variable: _ZN3sce15CommonGuiDialog5Param14s_dialogOkIconE nidvalue: 0x7D8FE85E
Library: SceCommonGuiDialog variable: _ZN3sce15CommonGuiDialog5Param20s_dialogOkCancelIconE nidvalue: 0xC4A714DE
Library: SceCommonGuiDialog variable: _ZN3sce15CommonGuiDialog5Param18s_dialogFullscreenE nidvalue: 0x52A53037
Library: SceCommonGuiDialog variable: _ZN3sce15CommonGuiDialog5Param20s_dialogOkFullscreenE nidvalue: 0xB04C8C1A
Library: SceCommonGuiDialog variable: _ZN3sce15CommonGuiDialog5Param17s_dialogOkTextboxE nidvalue: 0xDEDA75E4
Library: SceCommonGuiDialog variable: _ZN3sce15CommonGuiDialog5Param22s_dialogPlusInvitationE nidvalue: 0x04D71470

Library: SceCommonGuiDialog function: _ZN3sce15commonGuiDialog6DialogC1Ev nidvalue: 0x696DB9C9
Library: SceCommonGuiDialog function: _ZN3sce15CommonGuiDialog6DialogC2Ev nidvalue: 0x3EA370C9

// Library: SceCommonGuiDialog function: ShowCommonErrorDialog nidvalue: 0xA6422883
