emd: 1

Library: ScePafCommon attr: auto_export
Library: ScePafCommon version: 1
Library: ScePafCommon stubfile: "libScePafCommon_stub"
Library: ScePafCommon nidsuffix: "PAF"
Library: ScePafCommon libnamenid: 0x3C1965CD

Library: ScePafCommon function: _ZN3paf6effect24GetDefaultParameterValueENS0_10EffectTypeE nidvalue: 0xDE5322EB
Library: ScePafCommon function: _ZN3paf6effect31GetDefaultParameterValueReverseENS0_10EffectTypeEPNS_2ui6WidgetE nidvalue: 0xC85E4F3A
Library: ScePafCommon function: _ZN3paf6effect4PlayEfPNS_2ui6WidgetENS0_10EffectTypeEbb nidvalue: 0xB48C9BDC
Library: ScePafCommon function: _ZN3paf6effect11PlayReverseEfPNS_2ui6WidgetENS0_10EffectTypeEbb nidvalue: 0x6CF3A3C8

Library: ScePafCommon function: _ZN3paf6common5frame3GetEv nidvalue: 0xD0D82903
Library: ScePafCommon function: _ZN3paf6common5frame5ResetEv nidvalue: 0x23B36031
Library: ScePafCommon function: _ZN3paf6common5frame9IncrementEv nidvalue: 0x2700B0E2

Library: ScePafCommon function: _ZN3paf10MainPluginC1EPNS_6stringES3_PNS1_7LoadArgE nidvalue: 0x547491A7
Library: ScePafCommon function: _ZN3paf10MainPluginC2EPNS_6stringES3_PNS1_7LoadArgE nidvalue: 0x9109458C

Library: ScePafCommon function: _ZN3paf6common14MainThreadCallC1EPFvPvES2_ nidvalue: 0x168104A7
Library: ScePafCommon function: _ZN3paf6common14MainThreadCallC2EPFvPvES2_ nidvalue: 0x8D3DC5B5
Library: ScePafCommon function: _ZN3paf6common14MainThreadCallD1Ev nidvalue: 0xCDAADD57
Library: ScePafCommon function: _ZN3paf6common14MainThreadCallD2Ev nidvalue: 0xA7A6F8C0
Library: ScePafCommon function: _ZN3paf6common14MainThreadCall3RunEv nidvalue: 0xAC79C8D3

Library: ScePafCommon function: _ZN3paf6common12JobCallQueue7GetSizeEv nidvalue: 0xB01BE5EF

Library: ScePafCommon function: _ZN3paf6common11string_util4setfERNS_12basic_stringIcNS_11char_traitsIcEENS_9allocatorIcEEEEPKcz nidvalue: 0x87D6E910
Library: ScePafCommon function: _ZN3paf6common11string_util12SizeToStringERNS_12basic_stringIcNS_11char_traitsIcEENS_9allocatorIcEEEEj nidvalue: 0xF7FEB001
Library: ScePafCommon function: _ZN3paf6common11string_util13FloatToStringERNS_12basic_stringIcNS_11char_traitsIcEENS_9allocatorIcEEEEfbbb nidvalue: 0x4B2EEC60
Library: ScePafCommon function: _ZN3paf6common11string_util9ParsePathERNS_12basic_stringIcNS_11char_traitsIcEENS_9allocatorIcEEEERKS7_SA_ nidvalue: 0x2BD4F07A
Library: ScePafCommon function: _ZN3paf6common11string_util5EqualERKNS_12basic_stringIcNS_11char_traitsIcEENS_9allocatorIcEEEES9_ nidvalue: 0xDAC99BB6
Library: ScePafCommon function: _ZN3paf6common11string_util7ToInt32EPKcj nidvalue: 0x5383A280
Library: ScePafCommon function: _ZN3paf6common11string_util7ToFloatEPKcj nidvalue: 0x5DDC0B24
Library: ScePafCommon function: _ZN3paf6common11string_util7mappingERNS_3mapINS_12basic_stringIcNS_11char_traitsIcEENS_9allocatorIcEEEES8_NS_4lessIS8_EENS6_INS_4pairIKS8_S8_EEEEEERSC_jcc nidvalue: 0x9067966F

Library: ScePafCommon function: _ZN3paf6common4path4JoinERNS_12basic_stringIcNS_11char_traitsIcEENS_9allocatorIcEEEERKS7_SA_ nidvalue: 0x92A62443

Library: ScePafCommon function: _ZN3paf6common11Utf16ToUtf8EPKwPNS_12basic_stringIcNS_11char_traitsIcEENS_9allocatorIcEEEE
Library: ScePafCommon function: _ZN3paf6common11Utf16ToUtf8EPKwPNS_12basic_stringIcNS_11char_traitsIcEENS_9allocatorIcEEEEi
Library: ScePafCommon function: _ZN3paf6common11Utf16ToUtf8ERKNS_12basic_stringIwNS_11char_traitsIwEENS_9allocatorIwEEEEPNS1_IcNS2_IcEENS4_IcEEEE
Library: ScePafCommon function: _ZN3paf6common11Utf16ToUtf8ERKNS_12basic_stringIwNS_11char_traitsIwEENS_9allocatorIwEEEEPNS1_IcNS2_IcEENS4_IcEEEEi
Library: ScePafCommon function: _ZN3paf6common11Utf8ToUtf16EPKcPNS_12basic_stringIwNS_11char_traitsIwEENS_9allocatorIwEEEE
Library: ScePafCommon function: _ZN3paf6common11Utf8ToUtf16EPKcPNS_12basic_stringIwNS_11char_traitsIwEENS_9allocatorIwEEEEi
Library: ScePafCommon function: _ZN3paf6common11Utf8ToUtf16ERKNS_12basic_stringIcNS_11char_traitsIcEENS_9allocatorIcEEEEPNS1_IwNS2_IwEENS4_IwEEEE
Library: ScePafCommon function: _ZN3paf6common11Utf8ToUtf16ERKNS_12basic_stringIcNS_11char_traitsIcEENS_9allocatorIcEEEEPNS1_IwNS2_IwEENS4_IwEEEEi

Library: ScePafCommon function: _ZN3paf6common6StringD1Ev
Library: ScePafCommon function: _ZN3paf6common6StringD2Ev
Library: ScePafCommon function: _ZN3paf6common6StringC1Ev
Library: ScePafCommon function: _ZN3paf6common6StringC2Ev
Library: ScePafCommon function: _ZN3paf6common6StringC1EPKc
Library: ScePafCommon function: _ZN3paf6common6StringC2EPKc
Library: ScePafCommon function: _ZN3paf6common6StringC1EPKw
Library: ScePafCommon function: _ZN3paf6common6StringC2EPKw
Library: ScePafCommon function: _ZN3paf6common6StringC1ERKNS_12basic_stringIwNS_11char_traitsIwEENS_9allocatorIwEEEE
Library: ScePafCommon function: _ZN3paf6common6StringC2ERKNS_12basic_stringIwNS_11char_traitsIwEENS_9allocatorIwEEEE
Library: ScePafCommon function: _ZN3paf6common6StringC1ERKNS_12basic_stringIcNS_11char_traitsIcEENS_9allocatorIcEEEE
Library: ScePafCommon function: _ZN3paf6common6StringC2ERKNS_12basic_stringIcNS_11char_traitsIcEENS_9allocatorIcEEEE
Library: ScePafCommon function: _ZN3paf6common6StringpLERKS1_
Library: ScePafCommon function: _ZN3paf6common6StringeqERKS1_
Library: ScePafCommon function: _ZN3paf6common6StringneERKS1_
Library: ScePafCommon function: _ZN3paf6common6StringplERKS1_
Library: ScePafCommon function: _ZN3paf6common6String5SplitEc
Library: ScePafCommon function: _ZN3paf6common6String5SplitERKNS_12basic_stringIcNS_11char_traitsIcEENS_9allocatorIcEEEE
Library: ScePafCommon function: _ZN3paf6common6String18SetFormattedStringEPKcz
Library: ScePafCommon function: _ZN3paf6common6String18SetFormattedStringEPKwz

Library: ScePafCommon function: _ZN3paf6common12JobCallQueueC1ERKNS_12basic_stringIcNS_11char_traitsIcEENS_9allocatorIcEEEEPNS_3job8JobQueueE
Library: ScePafCommon function: _ZN3paf6common12JobCallQueueC2ERKNS_12basic_stringIcNS_11char_traitsIcEENS_9allocatorIcEEEEPNS_3job8JobQueueE
Library: ScePafCommon function: _ZN3paf6common12JobCallQueueD1Ev
Library: ScePafCommon function: _ZN3paf6common12JobCallQueueD2Ev
Library: ScePafCommon function: _ZN3paf6common12JobCallQueue9WaitEmptyEv
Library: ScePafCommon function: _ZN3paf6common12JobCallQueue5CheckEv
Library: ScePafCommon function: _ZN3paf6common12JobCallQueue7EnqueueEPKcPFvPvES4_

Library: ScePafCommon function: _ZN3paf6common8CallListC1Ev
Library: ScePafCommon function: _ZN3paf6common8CallListC2Ev
Library: ScePafCommon function: _ZN3paf6common8CallList8RegisterEPFvPvES2_
Library: ScePafCommon function: _ZN3paf6common8CallList10UnregisterEPFvPvES2_
Library: ScePafCommon function: _ZN3paf6common8CallList6UpdateEPNS_6thread5MutexE
Library: ScePafCommon function: _ZN3paf6common8CallList6GetNumEv

Library: ScePafCommon function: _ZN3paf6common18MainThreadCallList8RegisterEPFvPvES2_
Library: ScePafCommon function: _ZN3paf6common18MainThreadCallList10UnregisterEPFvPvES2_

Library: ScePafCommon function: _ZN3paf6common11string_util8ToStringEPKvj
Library: ScePafCommon function: _ZN3paf6common11string_util8tokenizeERNS_4listINS_12basic_stringIcNS_11char_traitsIcEENS_9allocatorIcEEEENS6_IS8_EEEERKS8_jc
Library: ScePafCommon function: _ZN3paf6common11string_util8dissolveERNS_4listINS_12basic_stringIcNS_11char_traitsIcEENS_9allocatorIcEEEENS6_IS8_EEEERKS8_jcc

Library: ScePafCommon function: _ZN3paf6common4path5SplitERKNS_12basic_stringIcNS_11char_traitsIcEENS_9allocatorIcEEEERS7_SA_
Library: ScePafCommon function: _ZN3paf6common4path8SplitExtERKNS_12basic_stringIcNS_11char_traitsIcEENS_9allocatorIcEEEERS7_SA_